
c:/Users/martr/OneDrive/Documents/marlene/studentprojects-martru/hall_effect_sensor/hallEffectForSaw/target/1.5.1/argon/hallEffectForSaw.elf:     file format elf32-littlearm

Sections:
Idx Name          Size      VMA       LMA       File off  Algn
  0 .module_info  00000018  000d4000  000d4000  00004000  2**2
                  CONTENTS, ALLOC, LOAD, READONLY, DATA
  1 .dynalib      00000004  000d4018  000d4018  00004018  2**2
                  CONTENTS, ALLOC, LOAD, READONLY, DATA
  2 .text         00002214  000d401c  000d401c  0000401c  2**2
                  CONTENTS, ALLOC, LOAD, READONLY, CODE
  3 .backup       00000004  2003f400  000d6230  0000f400  2**2
                  CONTENTS, ALLOC, LOAD, DATA
  4 .data         00000070  2003e35c  000d6234  0001e35c  2**2
                  CONTENTS, ALLOC, LOAD, DATA
  5 .bss          00000424  2003e3cc  2003e3cc  0002e3cc  2**2
                  ALLOC
  6 .module_info_suffix 00000028  000d62a4  000d62a4  000262a4  2**0
                  CONTENTS, ALLOC, LOAD, READONLY, DATA
  7 .module_info_crc 00000004  000d62cc  000d62cc  000262cc  2**0
                  CONTENTS, ALLOC, LOAD, READONLY, DATA
  8 .debug_info   000beaf9  00000000  00000000  000262d0  2**0
                  CONTENTS, READONLY, DEBUGGING
  9 .debug_abbrev 0000efab  00000000  00000000  000e4dc9  2**0
                  CONTENTS, READONLY, DEBUGGING
 10 .debug_loc    0001971a  00000000  00000000  000f3d74  2**0
                  CONTENTS, READONLY, DEBUGGING
 11 .debug_aranges 00002120  00000000  00000000  0010d48e  2**0
                  CONTENTS, READONLY, DEBUGGING
 12 .debug_ranges 00003e68  00000000  00000000  0010f5ae  2**0
                  CONTENTS, READONLY, DEBUGGING
 13 .debug_macro  00032c75  00000000  00000000  00113416  2**0
                  CONTENTS, READONLY, DEBUGGING
 14 .debug_line   00024178  00000000  00000000  0014608b  2**0
                  CONTENTS, READONLY, DEBUGGING
 15 .debug_str    000ffc63  00000000  00000000  0016a203  2**0
                  CONTENTS, READONLY, DEBUGGING
 16 .debug_frame  0000c11c  00000000  00000000  00269e68  2**2
                  CONTENTS, READONLY, DEBUGGING

Disassembly of section .text:

000d401c <module_user_pre_init>:
/**
 * Initializes this user module. Returns the start of the heap.
 */
void* module_user_pre_init() {

    if ( (&link_global_data_start!=&link_global_data_initial_values) && (link_global_data_size != 0))
   d401c:	4809      	ldr	r0, [pc, #36]	; (d4044 <link_dynalib_end+0x28>)
   d401e:	490a      	ldr	r1, [pc, #40]	; (d4048 <link_dynalib_end+0x2c>)
   d4020:	4288      	cmp	r0, r1
extern constructor_ptr_t link_constructors_end;

/**
 * Initializes this user module. Returns the start of the heap.
 */
void* module_user_pre_init() {
   d4022:	b508      	push	{r3, lr}

    if ( (&link_global_data_start!=&link_global_data_initial_values) && (link_global_data_size != 0))
   d4024:	d005      	beq.n	d4032 <module_user_pre_init+0x16>
   d4026:	4a09      	ldr	r2, [pc, #36]	; (d404c <link_dynalib_end+0x30>)
   d4028:	4282      	cmp	r2, r0
   d402a:	d002      	beq.n	d4032 <module_user_pre_init+0x16>
    {
        memcpy(&link_global_data_start, &link_global_data_initial_values, link_global_data_size);
   d402c:	1a12      	subs	r2, r2, r0
   d402e:	f001 ff0b 	bl	d5e48 <memcpy>
    }

    memset(&link_bss_location, 0, link_bss_size );
   d4032:	4807      	ldr	r0, [pc, #28]	; (d4050 <link_dynalib_end+0x34>)
   d4034:	4a07      	ldr	r2, [pc, #28]	; (d4054 <link_dynalib_end+0x38>)
   d4036:	2100      	movs	r1, #0
   d4038:	1a12      	subs	r2, r2, r0
   d403a:	f001 ff10 	bl	d5e5e <memset>
    return &link_global_data_start;
}
   d403e:	4801      	ldr	r0, [pc, #4]	; (d4044 <link_dynalib_end+0x28>)
   d4040:	bd08      	pop	{r3, pc}
   d4042:	bf00      	nop
   d4044:	2003e35c 	.word	0x2003e35c
   d4048:	000d6234 	.word	0x000d6234
   d404c:	2003e3cc 	.word	0x2003e3cc
   d4050:	2003e3cc 	.word	0x2003e3cc
   d4054:	2003e7f0 	.word	0x2003e7f0

000d4058 <module_user_init>:
extern constructor_ptr_t link_constructors_location[];
extern constructor_ptr_t link_constructors_end;
#define link_constructors_size   ((unsigned long)&link_constructors_end  -  (unsigned long)&link_constructors_location )

void module_user_init()
{
   d4058:	b570      	push	{r4, r5, r6, lr}
    module_user_init_hook();
   d405a:	f000 fca9 	bl	d49b0 <module_user_init_hook>
   d405e:	4c07      	ldr	r4, [pc, #28]	; (d407c <module_user_init+0x24>)
   d4060:	4b07      	ldr	r3, [pc, #28]	; (d4080 <module_user_init+0x28>)
   d4062:	1ae4      	subs	r4, r4, r3
   d4064:	08a4      	lsrs	r4, r4, #2

    // invoke constructors
    int ctor_num;
    for (ctor_num=0; ctor_num < link_constructors_size/sizeof(constructor_ptr_t); ctor_num++ )
   d4066:	2500      	movs	r5, #0
   d4068:	461e      	mov	r6, r3
   d406a:	42a5      	cmp	r5, r4
   d406c:	d004      	beq.n	d4078 <module_user_init+0x20>
    {
        link_constructors_location[ctor_num]();
   d406e:	f856 3025 	ldr.w	r3, [r6, r5, lsl #2]
   d4072:	4798      	blx	r3
{
    module_user_init_hook();

    // invoke constructors
    int ctor_num;
    for (ctor_num=0; ctor_num < link_constructors_size/sizeof(constructor_ptr_t); ctor_num++ )
   d4074:	3501      	adds	r5, #1
   d4076:	e7f8      	b.n	d406a <module_user_init+0x12>
    {
        link_constructors_location[ctor_num]();
    }
}
   d4078:	bd70      	pop	{r4, r5, r6, pc}
   d407a:	bf00      	nop
   d407c:	000d6228 	.word	0x000d6228
   d4080:	000d61ec 	.word	0x000d61ec

000d4084 <module_user_setup>:

/**
 * Export these functions with a fuller name so they don't clash with the setup/loop wrappers in the system module.
 */
void module_user_setup() {
    setup();
   d4084:	f000 b814 	b.w	d40b0 <setup>

000d4088 <module_user_loop>:
}

void module_user_loop() {
   d4088:	b508      	push	{r3, lr}
    loop();
   d408a:	f000 f829 	bl	d40e0 <loop>
    _post_loop();
}
   d408e:	e8bd 4008 	ldmia.w	sp!, {r3, lr}
    setup();
}

void module_user_loop() {
    loop();
    _post_loop();
   d4092:	f000 bc4f 	b.w	d4934 <_post_loop>

000d4096 <_ZdlPv>:
   d4096:	f000 ba35 	b.w	d4504 <free>

000d409a <_ZdaPv>:
	free(p);
}

void operator delete[](void *p)
{
	free(p);
   d409a:	f000 ba33 	b.w	d4504 <free>

000d409e <__cxa_guard_acquire>:

/* Provide default implemenation for __cxa_guard_acquire() and
 * __cxa_guard_release(). Note: these must be revisited if a multitasking
 * OS is ported to this platform. */
__extension__ typedef int __guard __attribute__((mode (__DI__)));
int __cxa_guard_acquire(__guard *g) {return !*(char *)(g);};
   d409e:	7800      	ldrb	r0, [r0, #0]
   d40a0:	fab0 f080 	clz	r0, r0
   d40a4:	0940      	lsrs	r0, r0, #5
   d40a6:	4770      	bx	lr

000d40a8 <__cxa_guard_release>:
void __cxa_guard_release (__guard *g) {*(char *)g = 1;};
   d40a8:	2301      	movs	r3, #1
   d40aa:	7003      	strb	r3, [r0, #0]
   d40ac:	4770      	bx	lr
	...

000d40b0 <setup>:
*/
int hall_pin = A0;
// set number of hall trips for RPM reading (higher improves accuracy)
float hall_thresh = 5.0;

void setup() {
   d40b0:	b508      	push	{r3, lr}
  // initialize serial communication at 9600 bits per second:
  Serial.begin(9600);
   d40b2:	f000 fd7d 	bl	d4bb0 <_Z16_fetch_usbserialv>
   d40b6:	f44f 5116 	mov.w	r1, #9600	; 0x2580
   d40ba:	f000 fd6d 	bl	d4b98 <_ZN9USBSerial5beginEl>
  // make the hall pin an input:
  pinMode(hall_pin, INPUT);
   d40be:	4b06      	ldr	r3, [pc, #24]	; (d40d8 <setup+0x28>)
   d40c0:	2100      	movs	r1, #0
   d40c2:	8818      	ldrh	r0, [r3, #0]
   d40c4:	f001 f834 	bl	d5130 <pinMode>
  Serial.println("hello");
   d40c8:	f000 fd72 	bl	d4bb0 <_Z16_fetch_usbserialv>
   d40cc:	4903      	ldr	r1, [pc, #12]	; (d40dc <setup+0x2c>)
}
   d40ce:	e8bd 4008 	ldmia.w	sp!, {r3, lr}
void setup() {
  // initialize serial communication at 9600 bits per second:
  Serial.begin(9600);
  // make the hall pin an input:
  pinMode(hall_pin, INPUT);
  Serial.println("hello");
   d40d2:	f000 bae8 	b.w	d46a6 <_ZN5Print7printlnEPKc>
   d40d6:	bf00      	nop
   d40d8:	2003e360 	.word	0x2003e360
   d40dc:	000d5ee4 	.word	0x000d5ee4

000d40e0 <loop>:
}

// the loop routine runs over and over again forever:
void loop() {
   d40e0:	b570      	push	{r4, r5, r6, lr}
   d40e2:	ed2d 8b02 	vpush	{d8}

#ifdef __cplusplus
extern "C" {
#endif

inline system_tick_t millis(void) { return HAL_Timer_Get_Milli_Seconds(); }
   d40e6:	f000 f8a9 	bl	d423c <HAL_Timer_Get_Milli_Seconds>
  // preallocate values for tach
  float hall_count = 0.0;
  float start = millis();
   d40ea:	ee07 0a90 	vmov	s15, r0
}

// the loop routine runs over and over again forever:
void loop() {
  // preallocate values for tach
  float hall_count = 0.0;
   d40ee:	ed9f 8a25 	vldr	s16, [pc, #148]	; d4184 <loop+0xa4>
  float start = millis();
  bool on_state = false;
  // counting number of times the hall sensor is tripped
  // but without double counting during the same trip
  while(true){
    if (digitalRead(hall_pin)==0){
   d40f2:	4e25      	ldr	r6, [pc, #148]	; (d4188 <loop+0xa8>)
      }
    } else{
      on_state = false;
    }
    
    if (hall_count>=hall_thresh){
   d40f4:	4d25      	ldr	r5, [pc, #148]	; (d418c <loop+0xac>)

// the loop routine runs over and over again forever:
void loop() {
  // preallocate values for tach
  float hall_count = 0.0;
  float start = millis();
   d40f6:	eef8 8a67 	vcvt.f32.u32	s17, s15
  bool on_state = false;
   d40fa:	2400      	movs	r4, #0
  // counting number of times the hall sensor is tripped
  // but without double counting during the same trip
  while(true){
    if (digitalRead(hall_pin)==0){
   d40fc:	8830      	ldrh	r0, [r6, #0]
   d40fe:	f001 f828 	bl	d5152 <digitalRead>
   d4102:	b930      	cbnz	r0, d4112 <loop+0x32>
      if (on_state==false){
   d4104:	b934      	cbnz	r4, d4114 <loop+0x34>
        on_state = true;
        hall_count+=1.0;
   d4106:	eef7 7a00 	vmov.f32	s15, #112	; 0x3f800000  1.0
   d410a:	ee38 8a27 	vadd.f32	s16, s16, s15
  // counting number of times the hall sensor is tripped
  // but without double counting during the same trip
  while(true){
    if (digitalRead(hall_pin)==0){
      if (on_state==false){
        on_state = true;
   d410e:	2401      	movs	r4, #1
   d4110:	e000      	b.n	d4114 <loop+0x34>
        hall_count+=1.0;
       // Serial.println(hall_count);
      }
    } else{
      on_state = false;
   d4112:	2400      	movs	r4, #0
    }
    
    if (hall_count>=hall_thresh){
   d4114:	edd5 7a00 	vldr	s15, [r5]
   d4118:	eeb4 8ae7 	vcmpe.f32	s16, s15
   d411c:	eef1 fa10 	vmrs	APSR_nzcv, fpscr
   d4120:	dbec      	blt.n	d40fc <loop+0x1c>
   d4122:	f000 f88b 	bl	d423c <HAL_Timer_Get_Milli_Seconds>
    }
  }
  
  // print information about Time and RPM
  float end_time = millis();
  float time_passed = ((end_time-start)/1000.0);
   d4126:	ee07 0a90 	vmov	s15, r0
   d412a:	eef8 7a67 	vcvt.f32.u32	s15, s15
   d412e:	ed9f 7a18 	vldr	s14, [pc, #96]	; d4190 <loop+0xb0>
   d4132:	ee77 7ae8 	vsub.f32	s15, s15, s17
   d4136:	eec7 8a87 	vdiv.f32	s17, s15, s14
  Serial.print("Time Passed: ");
   d413a:	f000 fd39 	bl	d4bb0 <_Z16_fetch_usbserialv>
   d413e:	4915      	ldr	r1, [pc, #84]	; (d4194 <loop+0xb4>)
   d4140:	f000 fa9e 	bl	d4680 <_ZN5Print5printEPKc>
  Serial.print(time_passed);
   d4144:	f000 fd34 	bl	d4bb0 <_Z16_fetch_usbserialv>
   d4148:	2102      	movs	r1, #2
   d414a:	eeb0 0a68 	vmov.f32	s0, s17
   d414e:	f000 fb93 	bl	d4878 <_ZN5Print5printEfi>
  Serial.println("s");
   d4152:	f000 fd2d 	bl	d4bb0 <_Z16_fetch_usbserialv>
   d4156:	4910      	ldr	r1, [pc, #64]	; (d4198 <loop+0xb8>)
   d4158:	f000 faa5 	bl	d46a6 <_ZN5Print7printlnEPKc>
  float rpm_val = (hall_count/time_passed)*60.0;
  Serial.print(rpm_val);
   d415c:	f000 fd28 	bl	d4bb0 <_Z16_fetch_usbserialv>
   d4160:	ee88 0a28 	vdiv.f32	s0, s16, s17
   d4164:	2102      	movs	r1, #2
   d4166:	eddf 7a0d 	vldr	s15, [pc, #52]	; d419c <loop+0xbc>
   d416a:	ee20 0a27 	vmul.f32	s0, s0, s15
   d416e:	f000 fb83 	bl	d4878 <_ZN5Print5printEfi>
  Serial.println(" RPM");
   d4172:	f000 fd1d 	bl	d4bb0 <_Z16_fetch_usbserialv>
  //delay(1);        // delay in between reads for stability
}
   d4176:	ecbd 8b02 	vpop	{d8}
  Serial.print("Time Passed: ");
  Serial.print(time_passed);
  Serial.println("s");
  float rpm_val = (hall_count/time_passed)*60.0;
  Serial.print(rpm_val);
  Serial.println(" RPM");
   d417a:	4909      	ldr	r1, [pc, #36]	; (d41a0 <loop+0xc0>)
  //delay(1);        // delay in between reads for stability
}
   d417c:	e8bd 4070 	ldmia.w	sp!, {r4, r5, r6, lr}
  Serial.print("Time Passed: ");
  Serial.print(time_passed);
  Serial.println("s");
  float rpm_val = (hall_count/time_passed)*60.0;
  Serial.print(rpm_val);
  Serial.println(" RPM");
   d4180:	f000 ba91 	b.w	d46a6 <_ZN5Print7printlnEPKc>
   d4184:	00000000 	.word	0x00000000
   d4188:	2003e360 	.word	0x2003e360
   d418c:	2003e35c 	.word	0x2003e35c
   d4190:	447a0000 	.word	0x447a0000
   d4194:	000d5eea 	.word	0x000d5eea
   d4198:	000d5f9e 	.word	0x000d5f9e
   d419c:	42700000 	.word	0x42700000
   d41a0:	000d5ef8 	.word	0x000d5ef8

000d41a4 <_GLOBAL__sub_I_hall_pin>:

inline void pinSetFast(pin_t _pin) __attribute__((always_inline));
inline void pinResetFast(pin_t _pin) __attribute__((always_inline));
inline int32_t pinReadFast(pin_t _pin) __attribute__((always_inline));

static Hal_Pin_Info* PIN_MAP = HAL_Pin_Map();
   d41a4:	f000 b812 	b.w	d41cc <HAL_Pin_Map>

000d41a8 <_GLOBAL__sub_I__ZN16AirQualitySensor12FORCE_SIGNALE>:
   d41a8:	f000 b810 	b.w	d41cc <HAL_Pin_Map>

000d41ac <netdb_freeaddrinfo>:

DYNALIB_BEGIN(hal_netdb)

DYNALIB_FN(0, hal_netdb, netdb_gethostbyname, struct hostent*(const char*))
DYNALIB_FN(1, hal_netdb, netdb_gethostbyname_r, int(const char*, struct hostent*, char*, size_t, struct hostent**, int*))
DYNALIB_FN(2, hal_netdb, netdb_freeaddrinfo, void(struct addrinfo*))
   d41ac:	b508      	push	{r3, lr}
   d41ae:	4b02      	ldr	r3, [pc, #8]	; (d41b8 <netdb_freeaddrinfo+0xc>)
   d41b0:	681b      	ldr	r3, [r3, #0]
   d41b2:	689b      	ldr	r3, [r3, #8]
   d41b4:	9301      	str	r3, [sp, #4]
   d41b6:	bd08      	pop	{r3, pc}
   d41b8:	00030268 	.word	0x00030268

000d41bc <netdb_getaddrinfo>:
DYNALIB_FN(3, hal_netdb, netdb_getaddrinfo, int(const char*, const char*, const struct addrinfo*, struct addrinfo**))
   d41bc:	b508      	push	{r3, lr}
   d41be:	4b02      	ldr	r3, [pc, #8]	; (d41c8 <netdb_getaddrinfo+0xc>)
   d41c0:	681b      	ldr	r3, [r3, #0]
   d41c2:	68db      	ldr	r3, [r3, #12]
   d41c4:	9301      	str	r3, [sp, #4]
   d41c6:	bd08      	pop	{r3, pc}
   d41c8:	00030268 	.word	0x00030268

000d41cc <HAL_Pin_Map>:
// New HAL functions must be added to the end of this list.
// GNINRAW

DYNALIB_BEGIN(hal_gpio)

DYNALIB_FN(0, hal_gpio, HAL_Pin_Map, Hal_Pin_Info*(void))
   d41cc:	b508      	push	{r3, lr}
   d41ce:	4b02      	ldr	r3, [pc, #8]	; (d41d8 <HAL_Pin_Map+0xc>)
   d41d0:	681b      	ldr	r3, [r3, #0]
   d41d2:	681b      	ldr	r3, [r3, #0]
   d41d4:	9301      	str	r3, [sp, #4]
   d41d6:	bd08      	pop	{r3, pc}
   d41d8:	0003022c 	.word	0x0003022c

000d41dc <HAL_Pin_Mode>:
DYNALIB_FN(1, hal_gpio, HAL_Validate_Pin_Function, PinFunction(pin_t, PinFunction))
DYNALIB_FN(2, hal_gpio, HAL_Pin_Mode, void(pin_t, PinMode))
   d41dc:	b508      	push	{r3, lr}
   d41de:	4b02      	ldr	r3, [pc, #8]	; (d41e8 <HAL_Pin_Mode+0xc>)
   d41e0:	681b      	ldr	r3, [r3, #0]
   d41e2:	689b      	ldr	r3, [r3, #8]
   d41e4:	9301      	str	r3, [sp, #4]
   d41e6:	bd08      	pop	{r3, pc}
   d41e8:	0003022c 	.word	0x0003022c

000d41ec <HAL_Get_Pin_Mode>:
DYNALIB_FN(3, hal_gpio, HAL_Get_Pin_Mode, PinMode(pin_t))
   d41ec:	b508      	push	{r3, lr}
   d41ee:	4b02      	ldr	r3, [pc, #8]	; (d41f8 <HAL_Get_Pin_Mode+0xc>)
   d41f0:	681b      	ldr	r3, [r3, #0]
   d41f2:	68db      	ldr	r3, [r3, #12]
   d41f4:	9301      	str	r3, [sp, #4]
   d41f6:	bd08      	pop	{r3, pc}
   d41f8:	0003022c 	.word	0x0003022c

000d41fc <HAL_GPIO_Read>:
DYNALIB_FN(4, hal_gpio, HAL_GPIO_Write, void(pin_t, uint8_t))
DYNALIB_FN(5, hal_gpio, HAL_GPIO_Read, int32_t(pin_t))
   d41fc:	b508      	push	{r3, lr}
   d41fe:	4b02      	ldr	r3, [pc, #8]	; (d4208 <HAL_GPIO_Read+0xc>)
   d4200:	681b      	ldr	r3, [r3, #0]
   d4202:	695b      	ldr	r3, [r3, #20]
   d4204:	9301      	str	r3, [sp, #4]
   d4206:	bd08      	pop	{r3, pc}
   d4208:	0003022c 	.word	0x0003022c

000d420c <HAL_SPI_Init>:
DYNALIB_FN(2, hal_spi, HAL_SPI_Set_Bit_Order, void(HAL_SPI_Interface, uint8_t))
DYNALIB_FN(3, hal_spi, HAL_SPI_Set_Data_Mode, void(HAL_SPI_Interface, uint8_t))
DYNALIB_FN(4, hal_spi, HAL_SPI_Set_Clock_Divider, void(HAL_SPI_Interface, uint8_t))
DYNALIB_FN(5, hal_spi, HAL_SPI_Send_Receive_Data, uint16_t(HAL_SPI_Interface, uint16_t))
DYNALIB_FN(6, hal_spi, HAL_SPI_Is_Enabled_Old, bool(void))
DYNALIB_FN(7, hal_spi, HAL_SPI_Init, void(HAL_SPI_Interface))
   d420c:	b508      	push	{r3, lr}
   d420e:	4b02      	ldr	r3, [pc, #8]	; (d4218 <HAL_SPI_Init+0xc>)
   d4210:	681b      	ldr	r3, [r3, #0]
   d4212:	69db      	ldr	r3, [r3, #28]
   d4214:	9301      	str	r3, [sp, #4]
   d4216:	bd08      	pop	{r3, pc}
   d4218:	00030230 	.word	0x00030230

000d421c <HAL_SPI_Is_Enabled>:
DYNALIB_FN(8, hal_spi, HAL_SPI_Is_Enabled, bool(HAL_SPI_Interface))
   d421c:	b508      	push	{r3, lr}
   d421e:	4b02      	ldr	r3, [pc, #8]	; (d4228 <HAL_SPI_Is_Enabled+0xc>)
   d4220:	681b      	ldr	r3, [r3, #0]
   d4222:	6a1b      	ldr	r3, [r3, #32]
   d4224:	9301      	str	r3, [sp, #4]
   d4226:	bd08      	pop	{r3, pc}
   d4228:	00030230 	.word	0x00030230

000d422c <HAL_RNG_GetRandomNumber>:

DYNALIB_BEGIN(hal)

#if PLATFORM_ID > 3
DYNALIB_FN(0, hal, HAL_RNG_Configuration, void(void))
DYNALIB_FN(1, hal, HAL_RNG_GetRandomNumber, uint32_t(void))
   d422c:	b508      	push	{r3, lr}
   d422e:	4b02      	ldr	r3, [pc, #8]	; (d4238 <HAL_RNG_GetRandomNumber+0xc>)
   d4230:	681b      	ldr	r3, [r3, #0]
   d4232:	685b      	ldr	r3, [r3, #4]
   d4234:	9301      	str	r3, [sp, #4]
   d4236:	bd08      	pop	{r3, pc}
   d4238:	00030218 	.word	0x00030218

000d423c <HAL_Timer_Get_Milli_Seconds>:
#endif

DYNALIB_FN(BASE_IDX + 0, hal, HAL_Delay_Milliseconds, void(uint32_t))
DYNALIB_FN(BASE_IDX + 1, hal, HAL_Delay_Microseconds, void(uint32_t))
DYNALIB_FN(BASE_IDX + 2, hal, HAL_Timer_Get_Micro_Seconds, system_tick_t(void))
DYNALIB_FN(BASE_IDX + 3, hal, HAL_Timer_Get_Milli_Seconds, system_tick_t(void))
   d423c:	b508      	push	{r3, lr}
   d423e:	4b02      	ldr	r3, [pc, #8]	; (d4248 <HAL_Timer_Get_Milli_Seconds+0xc>)
   d4240:	681b      	ldr	r3, [r3, #0]
   d4242:	695b      	ldr	r3, [r3, #20]
   d4244:	9301      	str	r3, [sp, #4]
   d4246:	bd08      	pop	{r3, pc}
   d4248:	00030218 	.word	0x00030218

000d424c <os_thread_is_current>:
DYNALIB_BEGIN(hal_concurrent)

#if PLATFORM_THREADING
DYNALIB_FN(0, hal_concurrent, __gthread_equal, bool(__gthread_t, __gthread_t))
DYNALIB_FN(1, hal_concurrent, os_thread_create, os_result_t(os_thread_t*, const char*, os_thread_prio_t, os_thread_fn_t, void*, size_t))
DYNALIB_FN(2, hal_concurrent, os_thread_is_current, bool(os_thread_t))
   d424c:	b508      	push	{r3, lr}
   d424e:	4b02      	ldr	r3, [pc, #8]	; (d4258 <os_thread_is_current+0xc>)
   d4250:	681b      	ldr	r3, [r3, #0]
   d4252:	689b      	ldr	r3, [r3, #8]
   d4254:	9301      	str	r3, [sp, #4]
   d4256:	bd08      	pop	{r3, pc}
   d4258:	00030248 	.word	0x00030248

000d425c <os_thread_join>:
DYNALIB_FN(3, hal_concurrent, os_thread_yield, os_result_t(void))
DYNALIB_FN(4, hal_concurrent, os_thread_join, os_result_t(os_thread_t))
   d425c:	b508      	push	{r3, lr}
   d425e:	4b02      	ldr	r3, [pc, #8]	; (d4268 <os_thread_join+0xc>)
   d4260:	681b      	ldr	r3, [r3, #0]
   d4262:	691b      	ldr	r3, [r3, #16]
   d4264:	9301      	str	r3, [sp, #4]
   d4266:	bd08      	pop	{r3, pc}
   d4268:	00030248 	.word	0x00030248

000d426c <os_thread_cleanup>:
DYNALIB_FN(5, hal_concurrent, os_thread_cleanup, os_result_t(os_thread_t))
   d426c:	b508      	push	{r3, lr}
   d426e:	4b02      	ldr	r3, [pc, #8]	; (d4278 <os_thread_cleanup+0xc>)
   d4270:	681b      	ldr	r3, [r3, #0]
   d4272:	695b      	ldr	r3, [r3, #20]
   d4274:	9301      	str	r3, [sp, #4]
   d4276:	bd08      	pop	{r3, pc}
   d4278:	00030248 	.word	0x00030248

000d427c <os_mutex_recursive_create>:
DYNALIB_FN(13, hal_concurrent, os_mutex_destroy, int(os_mutex_t))
DYNALIB_FN(14, hal_concurrent, os_mutex_lock, int(os_mutex_t))
DYNALIB_FN(15, hal_concurrent, os_mutex_trylock, int(os_mutex_t))
DYNALIB_FN(16, hal_concurrent, os_mutex_unlock, int(os_mutex_t))

DYNALIB_FN(17, hal_concurrent, os_mutex_recursive_create, int(os_mutex_recursive_t*))
   d427c:	b508      	push	{r3, lr}
   d427e:	4b02      	ldr	r3, [pc, #8]	; (d4288 <os_mutex_recursive_create+0xc>)
   d4280:	681b      	ldr	r3, [r3, #0]
   d4282:	6c5b      	ldr	r3, [r3, #68]	; 0x44
   d4284:	9301      	str	r3, [sp, #4]
   d4286:	bd08      	pop	{r3, pc}
   d4288:	00030248 	.word	0x00030248

000d428c <os_mutex_recursive_destroy>:
DYNALIB_FN(18, hal_concurrent, os_mutex_recursive_destroy, int(os_mutex_recursive_t))
   d428c:	b508      	push	{r3, lr}
   d428e:	4b02      	ldr	r3, [pc, #8]	; (d4298 <os_mutex_recursive_destroy+0xc>)
   d4290:	681b      	ldr	r3, [r3, #0]
   d4292:	6c9b      	ldr	r3, [r3, #72]	; 0x48
   d4294:	9301      	str	r3, [sp, #4]
   d4296:	bd08      	pop	{r3, pc}
   d4298:	00030248 	.word	0x00030248

000d429c <inet_inet_ntop>:
DYNALIB_FN(0, hal_inet, inet_inet_addr, in_addr_t(const char*))
DYNALIB_FN(1, hal_inet, inet_inet_aton, int(const char*, struct in_addr*))
DYNALIB_FN(2, hal_inet, inet_inet_network, in_addr_t(const char*))
DYNALIB_FN(3, hal_inet, inet_inet_ntoa, char*(struct in_addr))
DYNALIB_FN(4, hal_inet, inet_inet_ntoa_r, char*(struct in_addr, char*, socklen_t))
DYNALIB_FN(5, hal_inet, inet_inet_ntop, const char*(int, const void*, char*, socklen_t))
   d429c:	b508      	push	{r3, lr}
   d429e:	4b02      	ldr	r3, [pc, #8]	; (d42a8 <inet_inet_ntop+0xc>)
   d42a0:	681b      	ldr	r3, [r3, #0]
   d42a2:	695b      	ldr	r3, [r3, #20]
   d42a4:	9301      	str	r3, [sp, #4]
   d42a6:	bd08      	pop	{r3, pc}
   d42a8:	00030264 	.word	0x00030264

000d42ac <HAL_USART_Init>:
#define BASE_IDX 6 // Base index for all subsequent functions
#else
#define BASE_IDX 0
#endif

DYNALIB_FN(BASE_IDX + 0, hal_usart, HAL_USART_Init, void(HAL_USART_Serial, Ring_Buffer*, Ring_Buffer*))
   d42ac:	b508      	push	{r3, lr}
   d42ae:	4b02      	ldr	r3, [pc, #8]	; (d42b8 <HAL_USART_Init+0xc>)
   d42b0:	681b      	ldr	r3, [r3, #0]
   d42b2:	681b      	ldr	r3, [r3, #0]
   d42b4:	9301      	str	r3, [sp, #4]
   d42b6:	bd08      	pop	{r3, pc}
   d42b8:	0003023c 	.word	0x0003023c

000d42bc <HAL_USART_Write_Data>:
DYNALIB_FN(BASE_IDX + 1, hal_usart, HAL_USART_Begin, void(HAL_USART_Serial, uint32_t))
DYNALIB_FN(BASE_IDX + 2, hal_usart, HAL_USART_End, void(HAL_USART_Serial))
DYNALIB_FN(BASE_IDX + 3, hal_usart, HAL_USART_Write_Data, uint32_t(HAL_USART_Serial, uint8_t))
   d42bc:	b508      	push	{r3, lr}
   d42be:	4b02      	ldr	r3, [pc, #8]	; (d42c8 <HAL_USART_Write_Data+0xc>)
   d42c0:	681b      	ldr	r3, [r3, #0]
   d42c2:	68db      	ldr	r3, [r3, #12]
   d42c4:	9301      	str	r3, [sp, #4]
   d42c6:	bd08      	pop	{r3, pc}
   d42c8:	0003023c 	.word	0x0003023c

000d42cc <HAL_USART_Available_Data>:
DYNALIB_FN(BASE_IDX + 4, hal_usart, HAL_USART_Available_Data, int32_t(HAL_USART_Serial))
   d42cc:	b508      	push	{r3, lr}
   d42ce:	4b02      	ldr	r3, [pc, #8]	; (d42d8 <HAL_USART_Available_Data+0xc>)
   d42d0:	681b      	ldr	r3, [r3, #0]
   d42d2:	691b      	ldr	r3, [r3, #16]
   d42d4:	9301      	str	r3, [sp, #4]
   d42d6:	bd08      	pop	{r3, pc}
   d42d8:	0003023c 	.word	0x0003023c

000d42dc <HAL_USART_Read_Data>:
DYNALIB_FN(BASE_IDX + 5, hal_usart, HAL_USART_Read_Data, int32_t(HAL_USART_Serial))
   d42dc:	b508      	push	{r3, lr}
   d42de:	4b02      	ldr	r3, [pc, #8]	; (d42e8 <HAL_USART_Read_Data+0xc>)
   d42e0:	681b      	ldr	r3, [r3, #0]
   d42e2:	695b      	ldr	r3, [r3, #20]
   d42e4:	9301      	str	r3, [sp, #4]
   d42e6:	bd08      	pop	{r3, pc}
   d42e8:	0003023c 	.word	0x0003023c

000d42ec <HAL_USART_Peek_Data>:
DYNALIB_FN(BASE_IDX + 6, hal_usart, HAL_USART_Peek_Data, int32_t(HAL_USART_Serial))
   d42ec:	b508      	push	{r3, lr}
   d42ee:	4b02      	ldr	r3, [pc, #8]	; (d42f8 <HAL_USART_Peek_Data+0xc>)
   d42f0:	681b      	ldr	r3, [r3, #0]
   d42f2:	699b      	ldr	r3, [r3, #24]
   d42f4:	9301      	str	r3, [sp, #4]
   d42f6:	bd08      	pop	{r3, pc}
   d42f8:	0003023c 	.word	0x0003023c

000d42fc <HAL_USART_Flush_Data>:
DYNALIB_FN(BASE_IDX + 7, hal_usart, HAL_USART_Flush_Data, void(HAL_USART_Serial))
   d42fc:	b508      	push	{r3, lr}
   d42fe:	4b02      	ldr	r3, [pc, #8]	; (d4308 <HAL_USART_Flush_Data+0xc>)
   d4300:	681b      	ldr	r3, [r3, #0]
   d4302:	69db      	ldr	r3, [r3, #28]
   d4304:	9301      	str	r3, [sp, #4]
   d4306:	bd08      	pop	{r3, pc}
   d4308:	0003023c 	.word	0x0003023c

000d430c <HAL_USART_Is_Enabled>:
DYNALIB_FN(BASE_IDX + 8, hal_usart, HAL_USART_Is_Enabled, bool(HAL_USART_Serial))
   d430c:	b508      	push	{r3, lr}
   d430e:	4b02      	ldr	r3, [pc, #8]	; (d4318 <HAL_USART_Is_Enabled+0xc>)
   d4310:	681b      	ldr	r3, [r3, #0]
   d4312:	6a1b      	ldr	r3, [r3, #32]
   d4314:	9301      	str	r3, [sp, #4]
   d4316:	bd08      	pop	{r3, pc}
   d4318:	0003023c 	.word	0x0003023c

000d431c <HAL_USART_Available_Data_For_Write>:
DYNALIB_FN(BASE_IDX + 9, hal_usart, HAL_USART_Half_Duplex, void(HAL_USART_Serial, bool))
DYNALIB_FN(BASE_IDX + 10, hal_usart, HAL_USART_Available_Data_For_Write, int32_t(HAL_USART_Serial))
   d431c:	b508      	push	{r3, lr}
   d431e:	4b02      	ldr	r3, [pc, #8]	; (d4328 <HAL_USART_Available_Data_For_Write+0xc>)
   d4320:	681b      	ldr	r3, [r3, #0]
   d4322:	6a9b      	ldr	r3, [r3, #40]	; 0x28
   d4324:	9301      	str	r3, [sp, #4]
   d4326:	bd08      	pop	{r3, pc}
   d4328:	0003023c 	.word	0x0003023c

000d432c <HAL_I2C_Write_Data>:
DYNALIB_FN(BASE_IDX + 3, hal_i2c, HAL_I2C_Begin, void(HAL_I2C_Interface, I2C_Mode, uint8_t, void*))
DYNALIB_FN(BASE_IDX + 4, hal_i2c, HAL_I2C_End, void(HAL_I2C_Interface, void*))
DYNALIB_FN(BASE_IDX + 5, hal_i2c, HAL_I2C_Request_Data, uint32_t(HAL_I2C_Interface, uint8_t, uint8_t, uint8_t, void*))
DYNALIB_FN(BASE_IDX + 6, hal_i2c, HAL_I2C_Begin_Transmission, void(HAL_I2C_Interface, uint8_t, const HAL_I2C_Transmission_Config*))
DYNALIB_FN(BASE_IDX + 7, hal_i2c, HAL_I2C_End_Transmission, uint8_t(HAL_I2C_Interface, uint8_t, void*))
DYNALIB_FN(BASE_IDX + 8, hal_i2c, HAL_I2C_Write_Data, uint32_t(HAL_I2C_Interface, uint8_t, void*))
   d432c:	b508      	push	{r3, lr}
   d432e:	4b02      	ldr	r3, [pc, #8]	; (d4338 <HAL_I2C_Write_Data+0xc>)
   d4330:	681b      	ldr	r3, [r3, #0]
   d4332:	6a1b      	ldr	r3, [r3, #32]
   d4334:	9301      	str	r3, [sp, #4]
   d4336:	bd08      	pop	{r3, pc}
   d4338:	00030228 	.word	0x00030228

000d433c <HAL_I2C_Available_Data>:
DYNALIB_FN(BASE_IDX + 9, hal_i2c, HAL_I2C_Available_Data, int32_t(HAL_I2C_Interface, void*))
   d433c:	b508      	push	{r3, lr}
   d433e:	4b02      	ldr	r3, [pc, #8]	; (d4348 <HAL_I2C_Available_Data+0xc>)
   d4340:	681b      	ldr	r3, [r3, #0]
   d4342:	6a5b      	ldr	r3, [r3, #36]	; 0x24
   d4344:	9301      	str	r3, [sp, #4]
   d4346:	bd08      	pop	{r3, pc}
   d4348:	00030228 	.word	0x00030228

000d434c <HAL_I2C_Read_Data>:
DYNALIB_FN(BASE_IDX + 10, hal_i2c, HAL_I2C_Read_Data, int32_t(HAL_I2C_Interface, void*))
   d434c:	b508      	push	{r3, lr}
   d434e:	4b02      	ldr	r3, [pc, #8]	; (d4358 <HAL_I2C_Read_Data+0xc>)
   d4350:	681b      	ldr	r3, [r3, #0]
   d4352:	6a9b      	ldr	r3, [r3, #40]	; 0x28
   d4354:	9301      	str	r3, [sp, #4]
   d4356:	bd08      	pop	{r3, pc}
   d4358:	00030228 	.word	0x00030228

000d435c <HAL_I2C_Peek_Data>:
DYNALIB_FN(BASE_IDX + 11, hal_i2c, HAL_I2C_Peek_Data, int32_t(HAL_I2C_Interface, void*))
   d435c:	b508      	push	{r3, lr}
   d435e:	4b02      	ldr	r3, [pc, #8]	; (d4368 <HAL_I2C_Peek_Data+0xc>)
   d4360:	681b      	ldr	r3, [r3, #0]
   d4362:	6adb      	ldr	r3, [r3, #44]	; 0x2c
   d4364:	9301      	str	r3, [sp, #4]
   d4366:	bd08      	pop	{r3, pc}
   d4368:	00030228 	.word	0x00030228

000d436c <HAL_I2C_Flush_Data>:
DYNALIB_FN(BASE_IDX + 12, hal_i2c, HAL_I2C_Flush_Data, void(HAL_I2C_Interface, void*))
   d436c:	b508      	push	{r3, lr}
   d436e:	4b02      	ldr	r3, [pc, #8]	; (d4378 <HAL_I2C_Flush_Data+0xc>)
   d4370:	681b      	ldr	r3, [r3, #0]
   d4372:	6b1b      	ldr	r3, [r3, #48]	; 0x30
   d4374:	9301      	str	r3, [sp, #4]
   d4376:	bd08      	pop	{r3, pc}
   d4378:	00030228 	.word	0x00030228

000d437c <HAL_I2C_Is_Enabled>:
DYNALIB_FN(BASE_IDX + 13, hal_i2c, HAL_I2C_Is_Enabled, bool(HAL_I2C_Interface, void*))
   d437c:	b508      	push	{r3, lr}
   d437e:	4b02      	ldr	r3, [pc, #8]	; (d4388 <HAL_I2C_Is_Enabled+0xc>)
   d4380:	681b      	ldr	r3, [r3, #0]
   d4382:	6b5b      	ldr	r3, [r3, #52]	; 0x34
   d4384:	9301      	str	r3, [sp, #4]
   d4386:	bd08      	pop	{r3, pc}
   d4388:	00030228 	.word	0x00030228

000d438c <HAL_I2C_Init>:
DYNALIB_FN(BASE_IDX + 14, hal_i2c, HAL_I2C_Set_Callback_On_Receive, void(HAL_I2C_Interface, void(*)(int), void*))
DYNALIB_FN(BASE_IDX + 15, hal_i2c, HAL_I2C_Set_Callback_On_Request, void(HAL_I2C_Interface, void(*)(void), void*))
DYNALIB_FN(BASE_IDX + 16, hal_i2c, HAL_I2C_Init, int(HAL_I2C_Interface, const HAL_I2C_Config*))
   d438c:	b508      	push	{r3, lr}
   d438e:	4b02      	ldr	r3, [pc, #8]	; (d4398 <HAL_I2C_Init+0xc>)
   d4390:	681b      	ldr	r3, [r3, #0]
   d4392:	6c1b      	ldr	r3, [r3, #64]	; 0x40
   d4394:	9301      	str	r3, [sp, #4]
   d4396:	bd08      	pop	{r3, pc}
   d4398:	00030228 	.word	0x00030228

000d439c <HAL_USB_USART_Init>:
#endif

DYNALIB_BEGIN(hal_usb)

#ifdef USB_CDC_ENABLE
DYNALIB_FN(0, hal_usb, HAL_USB_USART_Init, void(HAL_USB_USART_Serial, const HAL_USB_USART_Config*))
   d439c:	b508      	push	{r3, lr}
   d439e:	4b02      	ldr	r3, [pc, #8]	; (d43a8 <HAL_USB_USART_Init+0xc>)
   d43a0:	681b      	ldr	r3, [r3, #0]
   d43a2:	681b      	ldr	r3, [r3, #0]
   d43a4:	9301      	str	r3, [sp, #4]
   d43a6:	bd08      	pop	{r3, pc}
   d43a8:	0003024c 	.word	0x0003024c

000d43ac <HAL_USB_USART_Begin>:
DYNALIB_FN(1, hal_usb, HAL_USB_USART_Begin, void(HAL_USB_USART_Serial, uint32_t, void *))
   d43ac:	b508      	push	{r3, lr}
   d43ae:	4b02      	ldr	r3, [pc, #8]	; (d43b8 <HAL_USB_USART_Begin+0xc>)
   d43b0:	681b      	ldr	r3, [r3, #0]
   d43b2:	685b      	ldr	r3, [r3, #4]
   d43b4:	9301      	str	r3, [sp, #4]
   d43b6:	bd08      	pop	{r3, pc}
   d43b8:	0003024c 	.word	0x0003024c

000d43bc <HAL_USB_USART_Available_Data>:
DYNALIB_FN(2, hal_usb, HAL_USB_USART_End, void(HAL_USB_USART_Serial))
DYNALIB_FN(3, hal_usb, HAL_USB_USART_Baud_Rate, unsigned int(HAL_USB_USART_Serial))
DYNALIB_FN(4, hal_usb, HAL_USB_USART_Available_Data, int32_t(HAL_USB_USART_Serial))
   d43bc:	b508      	push	{r3, lr}
   d43be:	4b02      	ldr	r3, [pc, #8]	; (d43c8 <HAL_USB_USART_Available_Data+0xc>)
   d43c0:	681b      	ldr	r3, [r3, #0]
   d43c2:	691b      	ldr	r3, [r3, #16]
   d43c4:	9301      	str	r3, [sp, #4]
   d43c6:	bd08      	pop	{r3, pc}
   d43c8:	0003024c 	.word	0x0003024c

000d43cc <HAL_USB_USART_Available_Data_For_Write>:
DYNALIB_FN(5, hal_usb, HAL_USB_USART_Available_Data_For_Write, int32_t(HAL_USB_USART_Serial))
   d43cc:	b508      	push	{r3, lr}
   d43ce:	4b02      	ldr	r3, [pc, #8]	; (d43d8 <HAL_USB_USART_Available_Data_For_Write+0xc>)
   d43d0:	681b      	ldr	r3, [r3, #0]
   d43d2:	695b      	ldr	r3, [r3, #20]
   d43d4:	9301      	str	r3, [sp, #4]
   d43d6:	bd08      	pop	{r3, pc}
   d43d8:	0003024c 	.word	0x0003024c

000d43dc <HAL_USB_USART_Receive_Data>:
DYNALIB_FN(6, hal_usb, HAL_USB_USART_Receive_Data, int32_t(HAL_USB_USART_Serial, uint8_t))
   d43dc:	b508      	push	{r3, lr}
   d43de:	4b02      	ldr	r3, [pc, #8]	; (d43e8 <HAL_USB_USART_Receive_Data+0xc>)
   d43e0:	681b      	ldr	r3, [r3, #0]
   d43e2:	699b      	ldr	r3, [r3, #24]
   d43e4:	9301      	str	r3, [sp, #4]
   d43e6:	bd08      	pop	{r3, pc}
   d43e8:	0003024c 	.word	0x0003024c

000d43ec <HAL_USB_USART_Send_Data>:
DYNALIB_FN(7, hal_usb, HAL_USB_USART_Send_Data, int32_t(HAL_USB_USART_Serial, uint8_t))
   d43ec:	b508      	push	{r3, lr}
   d43ee:	4b02      	ldr	r3, [pc, #8]	; (d43f8 <HAL_USB_USART_Send_Data+0xc>)
   d43f0:	681b      	ldr	r3, [r3, #0]
   d43f2:	69db      	ldr	r3, [r3, #28]
   d43f4:	9301      	str	r3, [sp, #4]
   d43f6:	bd08      	pop	{r3, pc}
   d43f8:	0003024c 	.word	0x0003024c

000d43fc <HAL_USB_USART_Flush_Data>:
DYNALIB_FN(8, hal_usb, HAL_USB_USART_Flush_Data, void(HAL_USB_USART_Serial))
   d43fc:	b508      	push	{r3, lr}
   d43fe:	4b02      	ldr	r3, [pc, #8]	; (d4408 <HAL_USB_USART_Flush_Data+0xc>)
   d4400:	681b      	ldr	r3, [r3, #0]
   d4402:	6a1b      	ldr	r3, [r3, #32]
   d4404:	9301      	str	r3, [sp, #4]
   d4406:	bd08      	pop	{r3, pc}
   d4408:	0003024c 	.word	0x0003024c

000d440c <set_system_mode>:
#endif

DYNALIB_BEGIN(system)

DYNALIB_FN(0, system, system_mode, System_Mode_TypeDef(void))
DYNALIB_FN(1, system, set_system_mode, void(System_Mode_TypeDef))
   d440c:	b508      	push	{r3, lr}
   d440e:	4b02      	ldr	r3, [pc, #8]	; (d4418 <set_system_mode+0xc>)
   d4410:	681b      	ldr	r3, [r3, #0]
   d4412:	685b      	ldr	r3, [r3, #4]
   d4414:	9301      	str	r3, [sp, #4]
   d4416:	bd08      	pop	{r3, pc}
   d4418:	00030220 	.word	0x00030220

000d441c <system_ctrl_set_app_request_handler>:
DYNALIB_FN(BASE_IDX + 6, system, led_pattern_period, uint16_t(int, int, void*))
DYNALIB_FN(BASE_IDX + 7, system, system_set_tester_handlers, int(system_tester_handlers_t*, void*))
DYNALIB_FN(BASE_IDX + 8, system, system_format_diag_data, int(const uint16_t*, size_t, unsigned, appender_fn, void*, void*))

// Control requests
DYNALIB_FN(BASE_IDX + 9, system, system_ctrl_set_app_request_handler, int(ctrl_request_handler_fn, void*))
   d441c:	b508      	push	{r3, lr}
   d441e:	4b03      	ldr	r3, [pc, #12]	; (d442c <system_ctrl_set_app_request_handler+0x10>)
   d4420:	681b      	ldr	r3, [r3, #0]
   d4422:	f8d3 3088 	ldr.w	r3, [r3, #136]	; 0x88
   d4426:	9301      	str	r3, [sp, #4]
   d4428:	bd08      	pop	{r3, pc}
   d442a:	0000      	.short	0x0000
   d442c:	00030220 	.word	0x00030220

000d4430 <system_ctrl_set_result>:
DYNALIB_FN(BASE_IDX + 10, system, system_ctrl_alloc_reply_data, int(ctrl_request*, size_t, void*))
DYNALIB_FN(BASE_IDX + 11, system, system_ctrl_free_request_data, void(ctrl_request*, void*))
DYNALIB_FN(BASE_IDX + 12, system, system_ctrl_set_result, void(ctrl_request*, int, ctrl_completion_handler_fn, void*, void*))
   d4430:	b508      	push	{r3, lr}
   d4432:	4b03      	ldr	r3, [pc, #12]	; (d4440 <system_ctrl_set_result+0x10>)
   d4434:	681b      	ldr	r3, [r3, #0]
   d4436:	f8d3 3094 	ldr.w	r3, [r3, #148]	; 0x94
   d443a:	9301      	str	r3, [sp, #4]
   d443c:	bd08      	pop	{r3, pc}
   d443e:	0000      	.short	0x0000
   d4440:	00030220 	.word	0x00030220

000d4444 <network_connect>:
#endif

DYNALIB_BEGIN(system_net)

DYNALIB_FN(0, system_net, network_config, const void*(network_handle_t, uint32_t, void*))
DYNALIB_FN(1, system_net, network_connect, void(network_handle_t, uint32_t, uint32_t, void*))
   d4444:	b508      	push	{r3, lr}
   d4446:	4b02      	ldr	r3, [pc, #8]	; (d4450 <network_connect+0xc>)
   d4448:	681b      	ldr	r3, [r3, #0]
   d444a:	685b      	ldr	r3, [r3, #4]
   d444c:	9301      	str	r3, [sp, #4]
   d444e:	bd08      	pop	{r3, pc}
   d4450:	00030240 	.word	0x00030240

000d4454 <network_connecting>:
DYNALIB_FN(2, system_net, network_connecting, bool(network_handle_t, uint32_t, void*))
   d4454:	b508      	push	{r3, lr}
   d4456:	4b02      	ldr	r3, [pc, #8]	; (d4460 <network_connecting+0xc>)
   d4458:	681b      	ldr	r3, [r3, #0]
   d445a:	689b      	ldr	r3, [r3, #8]
   d445c:	9301      	str	r3, [sp, #4]
   d445e:	bd08      	pop	{r3, pc}
   d4460:	00030240 	.word	0x00030240

000d4464 <network_disconnect>:
DYNALIB_FN(3, system_net, network_disconnect, void(network_handle_t, uint32_t, void*))
   d4464:	b508      	push	{r3, lr}
   d4466:	4b02      	ldr	r3, [pc, #8]	; (d4470 <network_disconnect+0xc>)
   d4468:	681b      	ldr	r3, [r3, #0]
   d446a:	68db      	ldr	r3, [r3, #12]
   d446c:	9301      	str	r3, [sp, #4]
   d446e:	bd08      	pop	{r3, pc}
   d4470:	00030240 	.word	0x00030240

000d4474 <network_ready>:
DYNALIB_FN(4, system_net, network_ready, bool(network_handle_t, uint32_t, void*))
   d4474:	b508      	push	{r3, lr}
   d4476:	4b02      	ldr	r3, [pc, #8]	; (d4480 <network_ready+0xc>)
   d4478:	681b      	ldr	r3, [r3, #0]
   d447a:	691b      	ldr	r3, [r3, #16]
   d447c:	9301      	str	r3, [sp, #4]
   d447e:	bd08      	pop	{r3, pc}
   d4480:	00030240 	.word	0x00030240

000d4484 <network_on>:
DYNALIB_FN(5, system_net, network_on, void(network_handle_t, uint32_t, uint32_t, void*))
   d4484:	b508      	push	{r3, lr}
   d4486:	4b02      	ldr	r3, [pc, #8]	; (d4490 <network_on+0xc>)
   d4488:	681b      	ldr	r3, [r3, #0]
   d448a:	695b      	ldr	r3, [r3, #20]
   d448c:	9301      	str	r3, [sp, #4]
   d448e:	bd08      	pop	{r3, pc}
   d4490:	00030240 	.word	0x00030240

000d4494 <network_off>:
DYNALIB_FN(6, system_net, network_off, void(network_handle_t, uint32_t, uint32_t, void*))
   d4494:	b508      	push	{r3, lr}
   d4496:	4b02      	ldr	r3, [pc, #8]	; (d44a0 <network_off+0xc>)
   d4498:	681b      	ldr	r3, [r3, #0]
   d449a:	699b      	ldr	r3, [r3, #24]
   d449c:	9301      	str	r3, [sp, #4]
   d449e:	bd08      	pop	{r3, pc}
   d44a0:	00030240 	.word	0x00030240

000d44a4 <network_listen>:
DYNALIB_FN(7, system_net, network_listen, void(network_handle_t, uint32_t, void*))
   d44a4:	b508      	push	{r3, lr}
   d44a6:	4b02      	ldr	r3, [pc, #8]	; (d44b0 <network_listen+0xc>)
   d44a8:	681b      	ldr	r3, [r3, #0]
   d44aa:	69db      	ldr	r3, [r3, #28]
   d44ac:	9301      	str	r3, [sp, #4]
   d44ae:	bd08      	pop	{r3, pc}
   d44b0:	00030240 	.word	0x00030240

000d44b4 <network_listening>:
DYNALIB_FN(8, system_net, network_listening, bool(network_handle_t, uint32_t, void*))
   d44b4:	b508      	push	{r3, lr}
   d44b6:	4b02      	ldr	r3, [pc, #8]	; (d44c0 <network_listening+0xc>)
   d44b8:	681b      	ldr	r3, [r3, #0]
   d44ba:	6a1b      	ldr	r3, [r3, #32]
   d44bc:	9301      	str	r3, [sp, #4]
   d44be:	bd08      	pop	{r3, pc}
   d44c0:	00030240 	.word	0x00030240

000d44c4 <network_set_listen_timeout>:
DYNALIB_FN(9, system_net, network_has_credentials, bool(network_handle_t, uint32_t, void*))
DYNALIB_FN(10, system_net, network_set_credentials, int(network_handle_t, uint32_t, NetworkCredentials*, void*))
DYNALIB_FN(11, system_net, network_clear_credentials, bool(network_handle_t, uint32_t, NetworkCredentials*, void*))
DYNALIB_FN(12, system_net, network_set_listen_timeout, void(network_handle_t, uint16_t, void*))
   d44c4:	b508      	push	{r3, lr}
   d44c6:	4b02      	ldr	r3, [pc, #8]	; (d44d0 <network_set_listen_timeout+0xc>)
   d44c8:	681b      	ldr	r3, [r3, #0]
   d44ca:	6b1b      	ldr	r3, [r3, #48]	; 0x30
   d44cc:	9301      	str	r3, [sp, #4]
   d44ce:	bd08      	pop	{r3, pc}
   d44d0:	00030240 	.word	0x00030240

000d44d4 <network_get_listen_timeout>:
DYNALIB_FN(13, system_net, network_get_listen_timeout, uint16_t(network_handle_t, uint32_t, void*))
   d44d4:	b508      	push	{r3, lr}
   d44d6:	4b02      	ldr	r3, [pc, #8]	; (d44e0 <network_get_listen_timeout+0xc>)
   d44d8:	681b      	ldr	r3, [r3, #0]
   d44da:	6b5b      	ldr	r3, [r3, #52]	; 0x34
   d44dc:	9301      	str	r3, [sp, #4]
   d44de:	bd08      	pop	{r3, pc}
   d44e0:	00030240 	.word	0x00030240

000d44e4 <spark_set_random_seed_from_cloud_handler>:
DYNALIB_FN(10, system_cloud, spark_unsubscribe, void(void*))
DYNALIB_FN(11, system_cloud, spark_sync_time, bool(void*))
DYNALIB_FN(12, system_cloud, spark_sync_time_pending, bool(void*))
DYNALIB_FN(13, system_cloud, spark_sync_time_last, system_tick_t(time_t*, void*))
DYNALIB_FN(14, system_cloud, spark_set_connection_property, int(unsigned, unsigned, particle::protocol::connection_properties_t*, void*))
DYNALIB_FN(15, system_cloud, spark_set_random_seed_from_cloud_handler, int(void (*handler)(unsigned int), void*))
   d44e4:	b508      	push	{r3, lr}
   d44e6:	4b02      	ldr	r3, [pc, #8]	; (d44f0 <spark_set_random_seed_from_cloud_handler+0xc>)
   d44e8:	681b      	ldr	r3, [r3, #0]
   d44ea:	6bdb      	ldr	r3, [r3, #60]	; 0x3c
   d44ec:	9301      	str	r3, [sp, #4]
   d44ee:	bd08      	pop	{r3, pc}
   d44f0:	00030244 	.word	0x00030244

000d44f4 <malloc>:
#include <assert.h>
#endif

DYNALIB_BEGIN(rt)

DYNALIB_FN(0, rt, malloc, void*(size_t))
   d44f4:	b508      	push	{r3, lr}
   d44f6:	4b02      	ldr	r3, [pc, #8]	; (d4500 <malloc+0xc>)
   d44f8:	681b      	ldr	r3, [r3, #0]
   d44fa:	681b      	ldr	r3, [r3, #0]
   d44fc:	9301      	str	r3, [sp, #4]
   d44fe:	bd08      	pop	{r3, pc}
   d4500:	0003021c 	.word	0x0003021c

000d4504 <free>:
DYNALIB_FN(1, rt, free, void(void*))
   d4504:	b508      	push	{r3, lr}
   d4506:	4b02      	ldr	r3, [pc, #8]	; (d4510 <free+0xc>)
   d4508:	681b      	ldr	r3, [r3, #0]
   d450a:	685b      	ldr	r3, [r3, #4]
   d450c:	9301      	str	r3, [sp, #4]
   d450e:	bd08      	pop	{r3, pc}
   d4510:	0003021c 	.word	0x0003021c

000d4514 <_ZN5spark13EthernetClass9listeningEv>:
    uint16_t getListenTimeout(void) {
        return network_get_listen_timeout(*this, 0, NULL);
    }

    bool listening(void) {
        return network_listening(*this, 0, NULL);
   d4514:	2200      	movs	r2, #0
   d4516:	4611      	mov	r1, r2
   d4518:	6840      	ldr	r0, [r0, #4]
   d451a:	f7ff bfcb 	b.w	d44b4 <network_listening>

000d451e <_ZN5spark13EthernetClass16getListenTimeoutEv>:
    void setListenTimeout(uint16_t timeout) {
        network_set_listen_timeout(*this, timeout, NULL);
    }

    uint16_t getListenTimeout(void) {
        return network_get_listen_timeout(*this, 0, NULL);
   d451e:	2200      	movs	r2, #0
   d4520:	4611      	mov	r1, r2
   d4522:	6840      	ldr	r0, [r0, #4]
   d4524:	f7ff bfd6 	b.w	d44d4 <network_get_listen_timeout>

000d4528 <_ZN5spark13EthernetClass16setListenTimeoutEt>:
    void listen(bool begin=true) {
        network_listen(*this, begin ? 0 : 1, NULL);
    }

    void setListenTimeout(uint16_t timeout) {
        network_set_listen_timeout(*this, timeout, NULL);
   d4528:	2200      	movs	r2, #0
   d452a:	6840      	ldr	r0, [r0, #4]
   d452c:	f7ff bfca 	b.w	d44c4 <network_set_listen_timeout>

000d4530 <_ZN5spark13EthernetClass6listenEb>:
    void disconnect() {
        network_disconnect(*this, NETWORK_DISCONNECT_REASON_USER, NULL);
    }

    void listen(bool begin=true) {
        network_listen(*this, begin ? 0 : 1, NULL);
   d4530:	2200      	movs	r2, #0
   d4532:	f081 0101 	eor.w	r1, r1, #1
   d4536:	6840      	ldr	r0, [r0, #4]
   d4538:	f7ff bfb4 	b.w	d44a4 <network_listen>

000d453c <_ZN5spark13EthernetClass3offEv>:
    void on() {
        network_on(*this, 0, 0, NULL);
    }

    void off() {
        network_off(*this, 0, 0, NULL);
   d453c:	2300      	movs	r3, #0
   d453e:	461a      	mov	r2, r3
   d4540:	4619      	mov	r1, r3
   d4542:	6840      	ldr	r0, [r0, #4]
   d4544:	f7ff bfa6 	b.w	d4494 <network_off>

000d4548 <_ZN5spark13EthernetClass2onEv>:
    EthernetClass() :
            NetworkClass(NETWORK_INTERFACE_ETHERNET) {
    }

    void on() {
        network_on(*this, 0, 0, NULL);
   d4548:	2300      	movs	r3, #0
   d454a:	461a      	mov	r2, r3
   d454c:	4619      	mov	r1, r3
   d454e:	6840      	ldr	r0, [r0, #4]
   d4550:	f7ff bf98 	b.w	d4484 <network_on>

000d4554 <_ZN5spark13EthernetClass5readyEv>:
    bool listening(void) {
        return network_listening(*this, 0, NULL);
    }

    bool ready() {
        return network_ready(*this, 0,  NULL);
   d4554:	2200      	movs	r2, #0
   d4556:	4611      	mov	r1, r2
   d4558:	6840      	ldr	r0, [r0, #4]
   d455a:	f7ff bf8b 	b.w	d4474 <network_ready>

000d455e <_ZN5spark13EthernetClass10connectingEv>:
    void connect(unsigned flags=0) {
        network_connect(*this, flags, 0, NULL);
    }

    bool connecting(void) {
        return network_connecting(*this, 0, NULL);
   d455e:	2200      	movs	r2, #0
   d4560:	4611      	mov	r1, r2
   d4562:	6840      	ldr	r0, [r0, #4]
   d4564:	f7ff bf76 	b.w	d4454 <network_connecting>

000d4568 <_ZN5spark13EthernetClass10disconnectEv>:
    }

    void disconnect() {
        network_disconnect(*this, NETWORK_DISCONNECT_REASON_USER, NULL);
   d4568:	2200      	movs	r2, #0
   d456a:	2102      	movs	r1, #2
   d456c:	6840      	ldr	r0, [r0, #4]
   d456e:	f7ff bf79 	b.w	d4464 <network_disconnect>

000d4572 <_ZN5spark13EthernetClass7connectEj>:
    void off() {
        network_off(*this, 0, 0, NULL);
    }

    void connect(unsigned flags=0) {
        network_connect(*this, flags, 0, NULL);
   d4572:	2300      	movs	r3, #0
   d4574:	461a      	mov	r2, r3
   d4576:	6840      	ldr	r0, [r0, #4]
   d4578:	f7ff bf64 	b.w	d4444 <network_connect>

000d457c <_GLOBAL__sub_I__ZN5spark8EthernetE>:
    static NetworkClass& from(network_interface_t nif);

    virtual IPAddress resolve(const char* name);

    explicit NetworkClass(network_interface_t iface)
            : iface_(iface) {
   d457c:	4b02      	ldr	r3, [pc, #8]	; (d4588 <_GLOBAL__sub_I__ZN5spark8EthernetE+0xc>)
   d457e:	2203      	movs	r2, #3
   d4580:	605a      	str	r2, [r3, #4]
    }

class EthernetClass : public NetworkClass {
public:
    EthernetClass() :
            NetworkClass(NETWORK_INTERFACE_ETHERNET) {
   d4582:	4a02      	ldr	r2, [pc, #8]	; (d458c <_GLOBAL__sub_I__ZN5spark8EthernetE+0x10>)
   d4584:	601a      	str	r2, [r3, #0]
   d4586:	4770      	bx	lr
   d4588:	2003e3d0 	.word	0x2003e3d0
   d458c:	000d5f08 	.word	0x000d5f08

000d4590 <_ZN8SPIClassC1E17HAL_SPI_Interface>:
    }
    return particle::__SPISettings(info->clock, info->bit_order, info->data_mode);
}
} // namespace

SPIClass::SPIClass(HAL_SPI_Interface spi)
   d4590:	b510      	push	{r4, lr}
   d4592:	4604      	mov	r4, r0
{
    _spi = spi;
   d4594:	7001      	strb	r1, [r0, #0]
    HAL_SPI_Init(_spi);
   d4596:	4608      	mov	r0, r1
   d4598:	f7ff fe38 	bl	d420c <HAL_SPI_Init>
    _dividerReference = SPI_CLK_SYSTEM; // 0 indicates the system clock
   d459c:	2300      	movs	r3, #0
   d459e:	6063      	str	r3, [r4, #4]
}
   d45a0:	4620      	mov	r0, r4
   d45a2:	bd10      	pop	{r4, pc}

000d45a4 <_ZN8SPIClass9isEnabledEv>:
bool SPIClass::isEnabled()
{
    // XXX: pinAvailable() will call this method potentially even from
    // interrupt context. `enabled` flag in HAL is usually just a volatile
    // variable, so it's fine not to acquire the lock here.
    return HAL_SPI_Is_Enabled(_spi);
   d45a4:	7800      	ldrb	r0, [r0, #0]
   d45a6:	f7ff be39 	b.w	d421c <HAL_SPI_Is_Enabled>

000d45aa <_ZN17SystemSleepResult22freeWakeupSourceMemoryEv.isra.2>:
    operator SleepResult() {
        return toSleepResult();
    }

private:
    void freeWakeupSourceMemory() {
   d45aa:	b510      	push	{r4, lr}
   d45ac:	4604      	mov	r4, r0
        if (wakeupSource_) {
   d45ae:	6800      	ldr	r0, [r0, #0]
   d45b0:	b118      	cbz	r0, d45ba <_ZN17SystemSleepResult22freeWakeupSourceMemoryEv.isra.2+0x10>
            free(wakeupSource_);
   d45b2:	f7ff ffa7 	bl	d4504 <free>
            wakeupSource_ = nullptr;
   d45b6:	2300      	movs	r3, #0
   d45b8:	6023      	str	r3, [r4, #0]
   d45ba:	bd10      	pop	{r4, pc}

000d45bc <_ZN11SystemClassD1Ev>:
    system_error_t error_;
    SleepResult compatResult_;
};


class SystemClass {
   d45bc:	b510      	push	{r4, lr}
   d45be:	4604      	mov	r4, r0
        }
        return *this;
    }

    ~SystemSleepResult() {
        freeWakeupSourceMemory();
   d45c0:	f7ff fff3 	bl	d45aa <_ZN17SystemSleepResult22freeWakeupSourceMemoryEv.isra.2>
    system_error_t error_;
    SleepResult compatResult_;
};


class SystemClass {
   d45c4:	4620      	mov	r0, r4
   d45c6:	bd10      	pop	{r4, pc}

000d45c8 <_GLOBAL__sub_I_System>:
    return wokenUpByRtc();
}

system_error_t SleepResult::error() const {
    return err_;
   d45c8:	b510      	push	{r4, lr}

class SystemSleepResult {
public:
    SystemSleepResult()
            : wakeupSource_(nullptr),
              error_(SYSTEM_ERROR_NONE) {
   d45ca:	4c09      	ldr	r4, [pc, #36]	; (d45f0 <_GLOBAL__sub_I_System+0x28>)
   d45cc:	2000      	movs	r0, #0
    WAKEUP_REASON_PIN_OR_RTC = 3,
    WAKEUP_REASON_UNKNOWN = 4
};

struct SleepResult {
    SleepResult() {}
   d45ce:	f64f 73ff 	movw	r3, #65535	; 0xffff

class SystemSleepResult {
public:
    SystemSleepResult()
            : wakeupSource_(nullptr),
              error_(SYSTEM_ERROR_NONE) {
   d45d2:	6020      	str	r0, [r4, #0]
   d45d4:	80a0      	strh	r0, [r4, #4]
    WAKEUP_REASON_PIN_OR_RTC = 3,
    WAKEUP_REASON_UNKNOWN = 4
};

struct SleepResult {
    SleepResult() {}
   d45d6:	71a0      	strb	r0, [r4, #6]
   d45d8:	8120      	strh	r0, [r4, #8]
   d45da:	8163      	strh	r3, [r4, #10]

class SystemClass {
public:

    SystemClass(System_Mode_TypeDef mode = DEFAULT) {
        set_system_mode(mode);
   d45dc:	f7ff ff16 	bl	d440c <set_system_mode>

#if Wiring_LogConfig
extern void(*log_process_ctrl_request_callback)(ctrl_request* req);
#endif

SystemClass System;
   d45e0:	4620      	mov	r0, r4
   d45e2:	4a04      	ldr	r2, [pc, #16]	; (d45f4 <_GLOBAL__sub_I_System+0x2c>)
   d45e4:	4904      	ldr	r1, [pc, #16]	; (d45f8 <_GLOBAL__sub_I_System+0x30>)
    return wokenUpByRtc();
}

system_error_t SleepResult::error() const {
    return err_;
   d45e6:	e8bd 4010 	ldmia.w	sp!, {r4, lr}

#if Wiring_LogConfig
extern void(*log_process_ctrl_request_callback)(ctrl_request* req);
#endif

SystemClass System;
   d45ea:	f000 be05 	b.w	d51f8 <__aeabi_atexit>
   d45ee:	bf00      	nop
   d45f0:	2003e3d8 	.word	0x2003e3d8
   d45f4:	2003e3cc 	.word	0x2003e3cc
   d45f8:	000d45bd 	.word	0x000d45bd

000d45fc <_ZN14RecursiveMutexD1Ev>:
    RecursiveMutex() : handle_(nullptr)
    {
        os_mutex_recursive_create(&handle_);
    }

    ~RecursiveMutex() {
   d45fc:	b510      	push	{r4, lr}
   d45fe:	4604      	mov	r4, r0
        dispose();
    }

    void dispose()
    {
        if (handle_) {
   d4600:	6800      	ldr	r0, [r0, #0]
   d4602:	b108      	cbz	r0, d4608 <_ZN14RecursiveMutexD1Ev+0xc>
            os_mutex_recursive_destroy(handle_);
   d4604:	f7ff fe42 	bl	d428c <os_mutex_recursive_destroy>
        os_mutex_recursive_create(&handle_);
    }

    ~RecursiveMutex() {
        dispose();
    }
   d4608:	4620      	mov	r0, r4
   d460a:	bd10      	pop	{r4, pc}

000d460c <_GLOBAL__sub_I__ZN8particle3ble13WiringBleLock6mutex_E>:
BleCharacteristic BleLocalDevice::addCharacteristic(const String& desc, EnumFlags<BleCharacteristicProperty> properties, BleOnDataReceivedCallback callback, void* context) {
    WiringBleLock lk;
    return addCharacteristic(desc.c_str(), properties, callback, context);
}

} /* namespace particle */
   d460c:	b510      	push	{r4, lr}
    /**
     * Creates a shared mutex.
     */
    RecursiveMutex(os_mutex_recursive_t handle) : handle_(handle) {}

    RecursiveMutex() : handle_(nullptr)
   d460e:	4c06      	ldr	r4, [pc, #24]	; (d4628 <_GLOBAL__sub_I__ZN8particle3ble13WiringBleLock6mutex_E+0x1c>)
   d4610:	2300      	movs	r3, #0
    {
        os_mutex_recursive_create(&handle_);
   d4612:	4620      	mov	r0, r4
    /**
     * Creates a shared mutex.
     */
    RecursiveMutex(os_mutex_recursive_t handle) : handle_(handle) {}

    RecursiveMutex() : handle_(nullptr)
   d4614:	6023      	str	r3, [r4, #0]
    {
        os_mutex_recursive_create(&handle_);
   d4616:	f7ff fe31 	bl	d427c <os_mutex_recursive_create>
private:
    bool locked_;
    static RecursiveMutex mutex_;
};

RecursiveMutex WiringBleLock::mutex_;
   d461a:	4620      	mov	r0, r4
   d461c:	4a03      	ldr	r2, [pc, #12]	; (d462c <_GLOBAL__sub_I__ZN8particle3ble13WiringBleLock6mutex_E+0x20>)
   d461e:	4904      	ldr	r1, [pc, #16]	; (d4630 <_GLOBAL__sub_I__ZN8particle3ble13WiringBleLock6mutex_E+0x24>)
BleCharacteristic BleLocalDevice::addCharacteristic(const String& desc, EnumFlags<BleCharacteristicProperty> properties, BleOnDataReceivedCallback callback, void* context) {
    WiringBleLock lk;
    return addCharacteristic(desc.c_str(), properties, callback, context);
}

} /* namespace particle */
   d4620:	e8bd 4010 	ldmia.w	sp!, {r4, lr}
private:
    bool locked_;
    static RecursiveMutex mutex_;
};

RecursiveMutex WiringBleLock::mutex_;
   d4624:	f000 bde8 	b.w	d51f8 <__aeabi_atexit>
   d4628:	2003e3e4 	.word	0x2003e3e4
   d462c:	2003e3cc 	.word	0x2003e3cc
   d4630:	000d45fd 	.word	0x000d45fd

000d4634 <_ZN5Print5writeEPKhj>:

// Public Methods //////////////////////////////////////////////////////////////

/* default implementation: may be overridden */
size_t Print::write(const uint8_t *buffer, size_t size)
{
   d4634:	b5f8      	push	{r3, r4, r5, r6, r7, lr}
   d4636:	4606      	mov	r6, r0
   d4638:	460d      	mov	r5, r1
   d463a:	188f      	adds	r7, r1, r2
  size_t n = 0;
   d463c:	2400      	movs	r4, #0
  while (size--) {
   d463e:	42bd      	cmp	r5, r7
   d4640:	d00c      	beq.n	d465c <_ZN5Print5writeEPKhj+0x28>
     int chunk = write(*buffer++);
   d4642:	6833      	ldr	r3, [r6, #0]
   d4644:	f815 1b01 	ldrb.w	r1, [r5], #1
   d4648:	689b      	ldr	r3, [r3, #8]
   d464a:	4630      	mov	r0, r6
   d464c:	4798      	blx	r3
     if (chunk>=0)
   d464e:	2800      	cmp	r0, #0
   d4650:	db01      	blt.n	d4656 <_ZN5Print5writeEPKhj+0x22>
         n += chunk;
   d4652:	4404      	add	r4, r0

/* default implementation: may be overridden */
size_t Print::write(const uint8_t *buffer, size_t size)
{
  size_t n = 0;
  while (size--) {
   d4654:	e7f3      	b.n	d463e <_ZN5Print5writeEPKhj+0xa>
     int chunk = write(*buffer++);
   d4656:	2c00      	cmp	r4, #0
   d4658:	bf08      	it	eq
   d465a:	4604      	moveq	r4, r0
             n = chunk;
         break;
     }
  }
  return n;
}
   d465c:	4620      	mov	r0, r4
   d465e:	bdf8      	pop	{r3, r4, r5, r6, r7, pc}

000d4660 <_ZN5Print5writeEPKc>:

    int getWriteError() { return write_error; }
    void clearWriteError() { setWriteError(0); }

    virtual size_t write(uint8_t) = 0;
    size_t write(const char *str) {
   d4660:	b570      	push	{r4, r5, r6, lr}
   d4662:	4605      	mov	r5, r0
      if (str == NULL) return 0;
   d4664:	460c      	mov	r4, r1
      return write((const uint8_t *)str, strlen(str));
    }
   d4666:	4608      	mov	r0, r1
    int getWriteError() { return write_error; }
    void clearWriteError() { setWriteError(0); }

    virtual size_t write(uint8_t) = 0;
    size_t write(const char *str) {
      if (str == NULL) return 0;
   d4668:	b149      	cbz	r1, d467e <_ZN5Print5writeEPKc+0x1e>
      return write((const uint8_t *)str, strlen(str));
   d466a:	f001 fc29 	bl	d5ec0 <strlen>
   d466e:	682b      	ldr	r3, [r5, #0]
   d4670:	4602      	mov	r2, r0
   d4672:	4621      	mov	r1, r4
   d4674:	4628      	mov	r0, r5
   d4676:	68db      	ldr	r3, [r3, #12]
    }
   d4678:	e8bd 4070 	ldmia.w	sp!, {r4, r5, r6, lr}
    void clearWriteError() { setWriteError(0); }

    virtual size_t write(uint8_t) = 0;
    size_t write(const char *str) {
      if (str == NULL) return 0;
      return write((const uint8_t *)str, strlen(str));
   d467c:	4718      	bx	r3
    }
   d467e:	bd70      	pop	{r4, r5, r6, pc}

000d4680 <_ZN5Print5printEPKc>:
   d4680:	b508      	push	{r3, lr}
   d4682:	f7ff ffed 	bl	d4660 <_ZN5Print5writeEPKc>
   d4686:	bd08      	pop	{r3, pc}

000d4688 <_ZN5Print5printEc>:
  return write(str);
}

size_t Print::print(char c)
{
  return write(c);
   d4688:	6803      	ldr	r3, [r0, #0]
   d468a:	689b      	ldr	r3, [r3, #8]
   d468c:	4718      	bx	r3

000d468e <_ZN5Print7printlnEv>:
{
  return print(reinterpret_cast<const char*>(str));
}

size_t Print::println(void)
{
   d468e:	b538      	push	{r3, r4, r5, lr}
  size_t n = print('\r');
   d4690:	210d      	movs	r1, #13
{
  return print(reinterpret_cast<const char*>(str));
}

size_t Print::println(void)
{
   d4692:	4605      	mov	r5, r0
  size_t n = print('\r');
   d4694:	f7ff fff8 	bl	d4688 <_ZN5Print5printEc>
  n += print('\n');
   d4698:	210a      	movs	r1, #10
  return print(reinterpret_cast<const char*>(str));
}

size_t Print::println(void)
{
  size_t n = print('\r');
   d469a:	4604      	mov	r4, r0
  n += print('\n');
   d469c:	4628      	mov	r0, r5
   d469e:	f7ff fff3 	bl	d4688 <_ZN5Print5printEc>
  return n;
}
   d46a2:	4420      	add	r0, r4
   d46a4:	bd38      	pop	{r3, r4, r5, pc}

000d46a6 <_ZN5Print7printlnEPKc>:

size_t Print::println(const char c[])
{
   d46a6:	b538      	push	{r3, r4, r5, lr}
   d46a8:	4605      	mov	r5, r0
  return n;
}

size_t Print::print(const char str[])
{
  return write(str);
   d46aa:	f7ff ffd9 	bl	d4660 <_ZN5Print5writeEPKc>
   d46ae:	4604      	mov	r4, r0
}

size_t Print::println(const char c[])
{
  size_t n = print(c);
  n += println();
   d46b0:	4628      	mov	r0, r5
   d46b2:	f7ff ffec 	bl	d468e <_ZN5Print7printlnEv>
  return n;
}
   d46b6:	4420      	add	r0, r4
   d46b8:	bd38      	pop	{r3, r4, r5, pc}

000d46ba <_ZN5Print11printNumberEmh>:
  return println(reinterpret_cast<const char*>(str));
}

// Private Methods /////////////////////////////////////////////////////////////

size_t Print::printNumber(unsigned long n, uint8_t base) {
   d46ba:	b530      	push	{r4, r5, lr}
   d46bc:	b08b      	sub	sp, #44	; 0x2c
   d46be:	460b      	mov	r3, r1
  char buf[8 * sizeof(n) + 1]; // Assumes 8-bit chars plus zero byte.
  char *str = &buf[sizeof(buf) - 1];

  *str = '\0';
   d46c0:	2100      	movs	r1, #0
   d46c2:	f88d 1024 	strb.w	r1, [sp, #36]	; 0x24

  // prevent crash if called with base == 1
  if (base < 2) base = 10;
   d46c6:	2a01      	cmp	r2, #1
   d46c8:	bf98      	it	ls
   d46ca:	220a      	movls	r2, #10
   d46cc:	f10d 0423 	add.w	r4, sp, #35	; 0x23

  do {
   decltype(n) m = n;
   n /= base;
   d46d0:	fbb3 f5f2 	udiv	r5, r3, r2
   char c = m - base * n;
   d46d4:	fb05 3312 	mls	r3, r5, r2, r3
   d46d8:	f003 03ff 	and.w	r3, r3, #255	; 0xff
   *--str = c < 10 ? c + '0' : c + 'A' - 10;
   d46dc:	2b09      	cmp	r3, #9
   d46de:	bf94      	ite	ls
   d46e0:	3330      	addls	r3, #48	; 0x30
   d46e2:	3337      	addhi	r3, #55	; 0x37
   d46e4:	b2db      	uxtb	r3, r3
   d46e6:	4621      	mov	r1, r4
   d46e8:	f804 3901 	strb.w	r3, [r4], #-1
   d46ec:	462b      	mov	r3, r5
  *str = '\0';

  // prevent crash if called with base == 1
  if (base < 2) base = 10;

  do {
   d46ee:	2d00      	cmp	r5, #0
   d46f0:	d1ee      	bne.n	d46d0 <_ZN5Print11printNumberEmh+0x16>
   n /= base;
   char c = m - base * n;
   *--str = c < 10 ? c + '0' : c + 'A' - 10;
  } while(n);

  return write(str);
   d46f2:	f7ff ffb5 	bl	d4660 <_ZN5Print5writeEPKc>
}
   d46f6:	b00b      	add	sp, #44	; 0x2c
   d46f8:	bd30      	pop	{r4, r5, pc}
	...

000d46fc <_ZN5Print10printFloatEdh>:

  return write(str);
}

size_t Print::printFloat(double number, uint8_t digits)
{
   d46fc:	e92d 47f0 	stmdb	sp!, {r4, r5, r6, r7, r8, r9, sl, lr}
   d4700:	ec57 6b10 	vmov	r6, r7, d0
   d4704:	4682      	mov	sl, r0
   d4706:	460d      	mov	r5, r1
  size_t n = 0;

  if (isnan(number)) return print("nan");
   d4708:	ee10 2a10 	vmov	r2, s0
   d470c:	463b      	mov	r3, r7
   d470e:	ee10 0a10 	vmov	r0, s0
   d4712:	4639      	mov	r1, r7
   d4714:	f001 fb2c 	bl	d5d70 <__aeabi_dcmpun>
   d4718:	b108      	cbz	r0, d471e <_ZN5Print10printFloatEdh+0x22>
  return n;
}

size_t Print::print(const char str[])
{
  return write(str);
   d471a:	494e      	ldr	r1, [pc, #312]	; (d4854 <_ZN5Print10printFloatEdh+0x158>)
   d471c:	e012      	b.n	d4744 <_ZN5Print10printFloatEdh+0x48>
size_t Print::printFloat(double number, uint8_t digits)
{
  size_t n = 0;

  if (isnan(number)) return print("nan");
  if (isinf(number)) return print("inf");
   d471e:	f027 4900 	bic.w	r9, r7, #2147483648	; 0x80000000
   d4722:	f04f 32ff 	mov.w	r2, #4294967295
   d4726:	4b4c      	ldr	r3, [pc, #304]	; (d4858 <_ZN5Print10printFloatEdh+0x15c>)
   d4728:	4630      	mov	r0, r6
   d472a:	4649      	mov	r1, r9
   d472c:	f001 fb20 	bl	d5d70 <__aeabi_dcmpun>
   d4730:	b968      	cbnz	r0, d474e <_ZN5Print10printFloatEdh+0x52>
   d4732:	f04f 32ff 	mov.w	r2, #4294967295
   d4736:	4b48      	ldr	r3, [pc, #288]	; (d4858 <_ZN5Print10printFloatEdh+0x15c>)
   d4738:	4630      	mov	r0, r6
   d473a:	4649      	mov	r1, r9
   d473c:	f001 fafa 	bl	d5d34 <__aeabi_dcmple>
   d4740:	b928      	cbnz	r0, d474e <_ZN5Print10printFloatEdh+0x52>
  return n;
}

size_t Print::print(const char str[])
{
  return write(str);
   d4742:	4946      	ldr	r1, [pc, #280]	; (d485c <_ZN5Print10printFloatEdh+0x160>)
   d4744:	4650      	mov	r0, sl
   d4746:	f7ff ff8b 	bl	d4660 <_ZN5Print5writeEPKc>
size_t Print::printFloat(double number, uint8_t digits)
{
  size_t n = 0;

  if (isnan(number)) return print("nan");
  if (isinf(number)) return print("inf");
   d474a:	e8bd 87f0 	ldmia.w	sp!, {r4, r5, r6, r7, r8, r9, sl, pc}
  if (number > 4294967040.0) return print ("ovf");  // constant determined empirically
   d474e:	f04f 4260 	mov.w	r2, #3758096384	; 0xe0000000
   d4752:	4b43      	ldr	r3, [pc, #268]	; (d4860 <_ZN5Print10printFloatEdh+0x164>)
   d4754:	4630      	mov	r0, r6
   d4756:	4639      	mov	r1, r7
   d4758:	f001 fb00 	bl	d5d5c <__aeabi_dcmpgt>
   d475c:	b108      	cbz	r0, d4762 <_ZN5Print10printFloatEdh+0x66>
  return n;
}

size_t Print::print(const char str[])
{
  return write(str);
   d475e:	4941      	ldr	r1, [pc, #260]	; (d4864 <_ZN5Print10printFloatEdh+0x168>)
   d4760:	e7f0      	b.n	d4744 <_ZN5Print10printFloatEdh+0x48>
  size_t n = 0;

  if (isnan(number)) return print("nan");
  if (isinf(number)) return print("inf");
  if (number > 4294967040.0) return print ("ovf");  // constant determined empirically
  if (number <-4294967040.0) return print ("ovf");  // constant determined empirically
   d4762:	f04f 4260 	mov.w	r2, #3758096384	; 0xe0000000
   d4766:	4b40      	ldr	r3, [pc, #256]	; (d4868 <_ZN5Print10printFloatEdh+0x16c>)
   d4768:	4630      	mov	r0, r6
   d476a:	4639      	mov	r1, r7
   d476c:	f001 fad8 	bl	d5d20 <__aeabi_dcmplt>
   d4770:	2800      	cmp	r0, #0
   d4772:	d1f4      	bne.n	d475e <_ZN5Print10printFloatEdh+0x62>

  // Handle negative numbers
  if (number < 0.0)
   d4774:	2200      	movs	r2, #0
   d4776:	2300      	movs	r3, #0
   d4778:	4630      	mov	r0, r6
   d477a:	4639      	mov	r1, r7
   d477c:	f001 fad0 	bl	d5d20 <__aeabi_dcmplt>
   d4780:	b140      	cbz	r0, d4794 <_ZN5Print10printFloatEdh+0x98>
  {
     n += print('-');
   d4782:	212d      	movs	r1, #45	; 0x2d
   d4784:	4650      	mov	r0, sl
   d4786:	f7ff ff7f 	bl	d4688 <_ZN5Print5printEc>
     number = -number;
   d478a:	f107 4300 	add.w	r3, r7, #2147483648	; 0x80000000
  if (number <-4294967040.0) return print ("ovf");  // constant determined empirically

  // Handle negative numbers
  if (number < 0.0)
  {
     n += print('-');
   d478e:	4604      	mov	r4, r0
     number = -number;
   d4790:	461f      	mov	r7, r3
   d4792:	e000      	b.n	d4796 <_ZN5Print10printFloatEdh+0x9a>
  return write(str);
}

size_t Print::printFloat(double number, uint8_t digits)
{
  size_t n = 0;
   d4794:	4604      	mov	r4, r0
     n += print('-');
     number = -number;
  }

  // Round correctly so that print(1.999, 2) prints as "2.00"
  double rounding = 0.5;
   d4796:	4935      	ldr	r1, [pc, #212]	; (d486c <_ZN5Print10printFloatEdh+0x170>)
  return write(str);
}

size_t Print::printFloat(double number, uint8_t digits)
{
  size_t n = 0;
   d4798:	f04f 0800 	mov.w	r8, #0
     n += print('-');
     number = -number;
  }

  // Round correctly so that print(1.999, 2) prints as "2.00"
  double rounding = 0.5;
   d479c:	2000      	movs	r0, #0
  for (uint8_t i=0; i<digits; ++i)
   d479e:	fa5f f388 	uxtb.w	r3, r8
   d47a2:	429d      	cmp	r5, r3
   d47a4:	d906      	bls.n	d47b4 <_ZN5Print10printFloatEdh+0xb8>
    rounding /= 10.0;
   d47a6:	2200      	movs	r2, #0
   d47a8:	4b31      	ldr	r3, [pc, #196]	; (d4870 <_ZN5Print10printFloatEdh+0x174>)
   d47aa:	f001 f971 	bl	d5a90 <__aeabi_ddiv>
   d47ae:	f108 0801 	add.w	r8, r8, #1
   d47b2:	e7f4      	b.n	d479e <_ZN5Print10printFloatEdh+0xa2>

  number += rounding;
   d47b4:	4632      	mov	r2, r6
   d47b6:	463b      	mov	r3, r7
   d47b8:	f000 fe8e 	bl	d54d8 <__adddf3>
   d47bc:	460f      	mov	r7, r1
   d47be:	4606      	mov	r6, r0

  // Extract the integer part of the number and print it
  unsigned long int_part = (unsigned long)number;
   d47c0:	f001 fb14 	bl	d5dec <__aeabi_d2uiz>
            t = print('-');
            val = -n;
        } else {
            val = n;
        }
        return printNumber(val, base) + t;
   d47c4:	220a      	movs	r2, #10
   d47c6:	4601      	mov	r1, r0
   d47c8:	4680      	mov	r8, r0
   d47ca:	4650      	mov	r0, sl
   d47cc:	f7ff ff75 	bl	d46ba <_ZN5Print11printNumberEmh>
  double remainder = number - (double)int_part;
  n += print(int_part);
   d47d0:	4404      	add	r4, r0

  // Print the decimal point, but only if there are digits beyond
  if (digits > 0) {
   d47d2:	b3e5      	cbz	r5, d484e <_ZN5Print10printFloatEdh+0x152>

  number += rounding;

  // Extract the integer part of the number and print it
  unsigned long int_part = (unsigned long)number;
  double remainder = number - (double)int_part;
   d47d4:	4640      	mov	r0, r8
   d47d6:	f000 ffbb 	bl	d5750 <__aeabi_ui2d>
   d47da:	4602      	mov	r2, r0
   d47dc:	460b      	mov	r3, r1
   d47de:	4630      	mov	r0, r6
   d47e0:	4639      	mov	r1, r7
   d47e2:	f000 fe77 	bl	d54d4 <__aeabi_dsub>
   d47e6:	4606      	mov	r6, r0
   d47e8:	460f      	mov	r7, r1
  return n;
}

size_t Print::print(const char str[])
{
  return write(str);
   d47ea:	4650      	mov	r0, sl
   d47ec:	4921      	ldr	r1, [pc, #132]	; (d4874 <_ZN5Print10printFloatEdh+0x178>)
   d47ee:	f7ff ff37 	bl	d4660 <_ZN5Print5writeEPKc>
  double remainder = number - (double)int_part;
  n += print(int_part);

  // Print the decimal point, but only if there are digits beyond
  if (digits > 0) {
    n += print(".");
   d47f2:	4404      	add	r4, r0
  }

  // Extract digits from the remainder one at a time
  while (digits-- > 0)
  {
    remainder *= 10.0;
   d47f4:	2200      	movs	r2, #0
   d47f6:	4b1e      	ldr	r3, [pc, #120]	; (d4870 <_ZN5Print10printFloatEdh+0x174>)
   d47f8:	4630      	mov	r0, r6
   d47fa:	4639      	mov	r1, r7
   d47fc:	f001 f81e 	bl	d583c <__aeabi_dmul>
   d4800:	4606      	mov	r6, r0
   d4802:	460f      	mov	r7, r1
    int toPrint = int(remainder);
   d4804:	f001 faca 	bl	d5d9c <__aeabi_d2iz>
        return write(n);
    } else {
        size_t t = 0;
        using PrintNumberType = typename PrintNumberTypeSelector<T>::type;
        PrintNumberType val;
        if (n < 0 && base == 10) {
   d4808:	f1b0 0900 	subs.w	r9, r0, #0
   d480c:	da07      	bge.n	d481e <_ZN5Print10printFloatEdh+0x122>
            t = print('-');
   d480e:	212d      	movs	r1, #45	; 0x2d
   d4810:	4650      	mov	r0, sl
   d4812:	f7ff ff39 	bl	d4688 <_ZN5Print5printEc>
            val = -n;
   d4816:	f1c9 0100 	rsb	r1, r9, #0
    } else {
        size_t t = 0;
        using PrintNumberType = typename PrintNumberTypeSelector<T>::type;
        PrintNumberType val;
        if (n < 0 && base == 10) {
            t = print('-');
   d481a:	4680      	mov	r8, r0
   d481c:	e002      	b.n	d4824 <_ZN5Print10printFloatEdh+0x128>
            val = -n;
        } else {
            val = n;
   d481e:	4649      	mov	r1, r9
size_t Print::print(T n, int base)
{
    if (base == 0) {
        return write(n);
    } else {
        size_t t = 0;
   d4820:	f04f 0800 	mov.w	r8, #0
            t = print('-');
            val = -n;
        } else {
            val = n;
        }
        return printNumber(val, base) + t;
   d4824:	220a      	movs	r2, #10
   d4826:	4650      	mov	r0, sl
   d4828:	f7ff ff47 	bl	d46ba <_ZN5Print11printNumberEmh>
    n += print(toPrint);
   d482c:	4440      	add	r0, r8
   d482e:	4404      	add	r4, r0
    remainder -= toPrint;
   d4830:	4648      	mov	r0, r9
   d4832:	f000 ff9d 	bl	d5770 <__aeabi_i2d>
   d4836:	4602      	mov	r2, r0
   d4838:	460b      	mov	r3, r1
   d483a:	4630      	mov	r0, r6
   d483c:	4639      	mov	r1, r7
   d483e:	f000 fe49 	bl	d54d4 <__aeabi_dsub>
   d4842:	3d01      	subs	r5, #1
  if (digits > 0) {
    n += print(".");
  }

  // Extract digits from the remainder one at a time
  while (digits-- > 0)
   d4844:	f015 05ff 	ands.w	r5, r5, #255	; 0xff
  {
    remainder *= 10.0;
    int toPrint = int(remainder);
    n += print(toPrint);
    remainder -= toPrint;
   d4848:	4606      	mov	r6, r0
   d484a:	460f      	mov	r7, r1
  if (digits > 0) {
    n += print(".");
  }

  // Extract digits from the remainder one at a time
  while (digits-- > 0)
   d484c:	d1d2      	bne.n	d47f4 <_ZN5Print10printFloatEdh+0xf8>
  number += rounding;

  // Extract the integer part of the number and print it
  unsigned long int_part = (unsigned long)number;
  double remainder = number - (double)int_part;
  n += print(int_part);
   d484e:	4620      	mov	r0, r4
   d4850:	e8bd 87f0 	ldmia.w	sp!, {r4, r5, r6, r7, r8, r9, sl, pc}
   d4854:	000d5f34 	.word	0x000d5f34
   d4858:	7fefffff 	.word	0x7fefffff
   d485c:	000d5f3e 	.word	0x000d5f3e
   d4860:	41efffff 	.word	0x41efffff
   d4864:	000d5f38 	.word	0x000d5f38
   d4868:	c1efffff 	.word	0xc1efffff
   d486c:	3fe00000 	.word	0x3fe00000
   d4870:	40240000 	.word	0x40240000
   d4874:	000d5f3c 	.word	0x000d5f3c

000d4878 <_ZN5Print5printEfi>:
{
  return write(c);
}

size_t Print::print(float n, int digits)
{
   d4878:	b538      	push	{r3, r4, r5, lr}
   d487a:	4604      	mov	r4, r0
  return printFloat((double)n, digits);
   d487c:	ee10 0a10 	vmov	r0, s0
   d4880:	b2cd      	uxtb	r5, r1
   d4882:	f000 ff87 	bl	d5794 <__aeabi_f2d>
   d4886:	ec41 0b10 	vmov	d0, r0, r1
   d488a:	4629      	mov	r1, r5
   d488c:	4620      	mov	r0, r4
}
   d488e:	e8bd 4038 	ldmia.w	sp!, {r3, r4, r5, lr}
  return write(c);
}

size_t Print::print(float n, int digits)
{
  return printFloat((double)n, digits);
   d4892:	f7ff bf33 	b.w	d46fc <_ZN5Print10printFloatEdh>
	...

000d4898 <_GLOBAL__sub_I__ZN5spark3LogE>:
    // This handler doesn't support direct logging
}

// spark::Logger
inline spark::Logger::Logger(const char *name) :
        name_(name) {
   d4898:	4b01      	ldr	r3, [pc, #4]	; (d48a0 <_GLOBAL__sub_I__ZN5spark3LogE+0x8>)
   d489a:	4a02      	ldr	r2, [pc, #8]	; (d48a4 <_GLOBAL__sub_I__ZN5spark3LogE+0xc>)
   d489c:	601a      	str	r2, [r3, #0]
   d489e:	4770      	bx	lr
   d48a0:	2003e3e8 	.word	0x2003e3e8
   d48a4:	000d5fb5 	.word	0x000d5fb5

000d48a8 <_GLOBAL__sub_I_TIME_FORMAT_DEFAULT>:
            calendar_time_cache = Convert_UnixTime_To_CalendarTime(unix_time);
            unix_time_cache = unix_time;
    }
}

const char* TimeClass::format_spec = TIME_FORMAT_DEFAULT;
   d48a8:	4b02      	ldr	r3, [pc, #8]	; (d48b4 <_GLOBAL__sub_I_TIME_FORMAT_DEFAULT+0xc>)
   d48aa:	681a      	ldr	r2, [r3, #0]
   d48ac:	4b02      	ldr	r3, [pc, #8]	; (d48b8 <_GLOBAL__sub_I_TIME_FORMAT_DEFAULT+0x10>)
   d48ae:	601a      	str	r2, [r3, #0]
   d48b0:	4770      	bx	lr
   d48b2:	bf00      	nop
   d48b4:	2003e364 	.word	0x2003e364
   d48b8:	2003e3ec 	.word	0x2003e3ec

000d48bc <_ZNSt14_Function_baseD1Ev>:
	}
      };

    _Function_base() : _M_manager(nullptr) { }

    ~_Function_base()
   d48bc:	b510      	push	{r4, lr}
    {
      if (_M_manager)
   d48be:	6883      	ldr	r3, [r0, #8]
	}
      };

    _Function_base() : _M_manager(nullptr) { }

    ~_Function_base()
   d48c0:	4604      	mov	r4, r0
    {
      if (_M_manager)
   d48c2:	b113      	cbz	r3, d48ca <_ZNSt14_Function_baseD1Ev+0xe>
	_M_manager(_M_functor, _M_functor, __destroy_functor);
   d48c4:	2203      	movs	r2, #3
   d48c6:	4601      	mov	r1, r0
   d48c8:	4798      	blx	r3
    }
   d48ca:	4620      	mov	r0, r4
   d48cc:	bd10      	pop	{r4, pc}

000d48ce <_ZN8RGBClassD1Ev>:
#include "rgbled.h"

typedef void (raw_rgb_change_handler_t)(uint8_t, uint8_t, uint8_t);
typedef std::function<raw_rgb_change_handler_t> wiring_rgb_change_handler_t;

class RGBClass {
   d48ce:	b510      	push	{r4, lr}
   d48d0:	4604      	mov	r4, r0
   *  @ingroup functors
   *
   *  Polymorphic function wrapper.
   */
  template<typename _Res, typename... _ArgTypes>
    class function<_Res(_ArgTypes...)>
   d48d2:	f7ff fff3 	bl	d48bc <_ZNSt14_Function_baseD1Ev>
   d48d6:	4620      	mov	r0, r4
   d48d8:	bd10      	pop	{r4, pc}
	...

000d48dc <_GLOBAL__sub_I_RGB>:
	{
	  _Base::_M_init_functor(__functor, std::__addressof(__f.get()));
	}
      };

    _Function_base() : _M_manager(nullptr) { }
   d48dc:	4803      	ldr	r0, [pc, #12]	; (d48ec <_GLOBAL__sub_I_RGB+0x10>)
#include "spark_wiring_rgb.h"
#include "spark_wiring_interrupts.h"

#include "core_hal.h"

RGBClass RGB;
   d48de:	4a04      	ldr	r2, [pc, #16]	; (d48f0 <_GLOBAL__sub_I_RGB+0x14>)
   d48e0:	4904      	ldr	r1, [pc, #16]	; (d48f4 <_GLOBAL__sub_I_RGB+0x18>)
   d48e2:	2300      	movs	r3, #0
   d48e4:	6083      	str	r3, [r0, #8]
   d48e6:	f000 bc87 	b.w	d51f8 <__aeabi_atexit>
   d48ea:	bf00      	nop
   d48ec:	2003e3f0 	.word	0x2003e3f0
   d48f0:	2003e3cc 	.word	0x2003e3cc
   d48f4:	000d48cf 	.word	0x000d48cf

000d48f8 <serialEventRun>:

/**
 * Provides background processing of serial data.
 */
void serialEventRun()
{
   d48f8:	b508      	push	{r3, lr}
    if (serialEvent && Serial.available()>0)
   d48fa:	4b0c      	ldr	r3, [pc, #48]	; (d492c <serialEventRun+0x34>)
   d48fc:	b133      	cbz	r3, d490c <serialEventRun+0x14>
   d48fe:	f000 f957 	bl	d4bb0 <_Z16_fetch_usbserialv>
   d4902:	6803      	ldr	r3, [r0, #0]
   d4904:	691b      	ldr	r3, [r3, #16]
   d4906:	4798      	blx	r3
   d4908:	2800      	cmp	r0, #0
   d490a:	dc09      	bgt.n	d4920 <serialEventRun+0x28>
        serialEvent();

    if (serialEvent1 && Serial1.available()>0)
   d490c:	4b08      	ldr	r3, [pc, #32]	; (d4930 <serialEventRun+0x38>)
   d490e:	b163      	cbz	r3, d492a <serialEventRun+0x32>
   d4910:	f000 f9d0 	bl	d4cb4 <_Z22__fetch_global_Serial1v>
   d4914:	6803      	ldr	r3, [r0, #0]
   d4916:	691b      	ldr	r3, [r3, #16]
   d4918:	4798      	blx	r3
   d491a:	2800      	cmp	r0, #0
   d491c:	dc03      	bgt.n	d4926 <serialEventRun+0x2e>
   d491e:	bd08      	pop	{r3, pc}
 * Provides background processing of serial data.
 */
void serialEventRun()
{
    if (serialEvent && Serial.available()>0)
        serialEvent();
   d4920:	f3af 8000 	nop.w
   d4924:	e7f2      	b.n	d490c <serialEventRun+0x14>

    if (serialEvent1 && Serial1.available()>0)
        serialEvent1();
   d4926:	f3af 8000 	nop.w
   d492a:	bd08      	pop	{r3, pc}
	...

000d4934 <_post_loop>:
#if Wiring_Serial5
void serialEvent5() __attribute__((weak));
#endif

void _post_loop()
{
   d4934:	b508      	push	{r3, lr}
	serialEventRun();
   d4936:	f7ff ffdf 	bl	d48f8 <serialEventRun>
		return !timeout_fn;
	}

	static inline system_tick_t current_time()
	{
		return HAL_Timer_Get_Milli_Seconds();
   d493a:	f7ff fc7f 	bl	d423c <HAL_Timer_Get_Milli_Seconds>
	/**
	 * Lifesign that the application is still working normally.
	 */
	static void checkin()
	{
		last_checkin = current_time();
   d493e:	4b01      	ldr	r3, [pc, #4]	; (d4944 <_post_loop+0x10>)
   d4940:	6018      	str	r0, [r3, #0]
   d4942:	bd08      	pop	{r3, pc}
   d4944:	2003e730 	.word	0x2003e730

000d4948 <_Z33system_initialize_user_backup_ramv>:
 * the dynamically linked application module.
 */
void system_initialize_user_backup_ram()
{
    size_t len = &link_global_retained_end-&link_global_retained_start;
    memcpy(&link_global_retained_start, &link_global_retained_initial_values, len);
   d4948:	4802      	ldr	r0, [pc, #8]	; (d4954 <_Z33system_initialize_user_backup_ramv+0xc>)
   d494a:	4a03      	ldr	r2, [pc, #12]	; (d4958 <_Z33system_initialize_user_backup_ramv+0x10>)
   d494c:	4903      	ldr	r1, [pc, #12]	; (d495c <_Z33system_initialize_user_backup_ramv+0x14>)
   d494e:	1a12      	subs	r2, r2, r0
   d4950:	f001 ba7a 	b.w	d5e48 <memcpy>
   d4954:	2003f400 	.word	0x2003f400
   d4958:	2003f404 	.word	0x2003f404
   d495c:	000d6230 	.word	0x000d6230

000d4960 <_Z27ctrl_request_custom_handlerP12ctrl_request>:
bool __backup_ram_was_valid() { return false; }

#endif

// Default handler for CTRL_REQUEST_APP_CUSTOM requests
void __attribute((weak)) ctrl_request_custom_handler(ctrl_request* req) {
   d4960:	b507      	push	{r0, r1, r2, lr}
    system_ctrl_set_result(req, SYSTEM_ERROR_NOT_SUPPORTED, nullptr, nullptr, nullptr);
   d4962:	2300      	movs	r3, #0
   d4964:	9300      	str	r3, [sp, #0]
   d4966:	461a      	mov	r2, r3
   d4968:	f06f 0177 	mvn.w	r1, #119	; 0x77
   d496c:	f7ff fd60 	bl	d4430 <system_ctrl_set_result>
}
   d4970:	b003      	add	sp, #12
   d4972:	f85d fb04 	ldr.w	pc, [sp], #4
	...

000d4978 <_ZL20ctrl_request_handlerP12ctrl_request>:
// Callback invoked to process a logging configuration request
void(*log_process_ctrl_request_callback)(ctrl_request* req) = nullptr;
#endif

// Application handler for control requests
static void ctrl_request_handler(ctrl_request* req) {
   d4978:	b507      	push	{r0, r1, r2, lr}
    switch (req->type) {
   d497a:	8843      	ldrh	r3, [r0, #2]
   d497c:	2b0a      	cmp	r3, #10
   d497e:	d008      	beq.n	d4992 <_ZL20ctrl_request_handlerP12ctrl_request+0x1a>
   d4980:	2b50      	cmp	r3, #80	; 0x50
   d4982:	d109      	bne.n	d4998 <_ZL20ctrl_request_handlerP12ctrl_request+0x20>
#if Wiring_LogConfig
    case CTRL_REQUEST_LOG_CONFIG: {
        if (log_process_ctrl_request_callback) {
   d4984:	4b09      	ldr	r3, [pc, #36]	; (d49ac <_ZL20ctrl_request_handlerP12ctrl_request+0x34>)
   d4986:	681b      	ldr	r3, [r3, #0]
   d4988:	b13b      	cbz	r3, d499a <_ZL20ctrl_request_handlerP12ctrl_request+0x22>
    }
    default:
        system_ctrl_set_result(req, SYSTEM_ERROR_NOT_SUPPORTED, nullptr, nullptr, nullptr);
        break;
    }
}
   d498a:	b003      	add	sp, #12
   d498c:	f85d eb04 	ldr.w	lr, [sp], #4
static void ctrl_request_handler(ctrl_request* req) {
    switch (req->type) {
#if Wiring_LogConfig
    case CTRL_REQUEST_LOG_CONFIG: {
        if (log_process_ctrl_request_callback) {
            log_process_ctrl_request_callback(req);
   d4990:	4718      	bx	r3
        }
        break;
    }
#endif
    case CTRL_REQUEST_APP_CUSTOM: {
        ctrl_request_custom_handler(req);
   d4992:	f7ff ffe5 	bl	d4960 <_Z27ctrl_request_custom_handlerP12ctrl_request>
        break;
   d4996:	e006      	b.n	d49a6 <_ZL20ctrl_request_handlerP12ctrl_request+0x2e>
    }
    default:
        system_ctrl_set_result(req, SYSTEM_ERROR_NOT_SUPPORTED, nullptr, nullptr, nullptr);
   d4998:	2300      	movs	r3, #0
   d499a:	9300      	str	r3, [sp, #0]
   d499c:	461a      	mov	r2, r3
   d499e:	f06f 0177 	mvn.w	r1, #119	; 0x77
   d49a2:	f7ff fd45 	bl	d4430 <system_ctrl_set_result>
        break;
    }
}
   d49a6:	b003      	add	sp, #12
   d49a8:	f85d fb04 	ldr.w	pc, [sp], #4
   d49ac:	2003e400 	.word	0x2003e400

000d49b0 <module_user_init_hook>:

void module_user_init_hook()
{
   d49b0:	b538      	push	{r3, r4, r5, lr}
#if HAL_PLATFORM_BACKUP_RAM
    backup_ram_was_valid_ =  __backup_sram_signature==signature;
   d49b2:	4c10      	ldr	r4, [pc, #64]	; (d49f4 <module_user_init_hook+0x44>)
   d49b4:	4d10      	ldr	r5, [pc, #64]	; (d49f8 <module_user_init_hook+0x48>)
   d49b6:	6823      	ldr	r3, [r4, #0]
   d49b8:	42ab      	cmp	r3, r5
   d49ba:	4b10      	ldr	r3, [pc, #64]	; (d49fc <module_user_init_hook+0x4c>)
   d49bc:	bf0c      	ite	eq
   d49be:	2201      	moveq	r2, #1
   d49c0:	2200      	movne	r2, #0
   d49c2:	701a      	strb	r2, [r3, #0]
    if (!backup_ram_was_valid_) {
   d49c4:	d002      	beq.n	d49cc <module_user_init_hook+0x1c>
        system_initialize_user_backup_ram();
   d49c6:	f7ff ffbf 	bl	d4948 <_Z33system_initialize_user_backup_ramv>
        __backup_sram_signature = signature;
   d49ca:	6025      	str	r5, [r4, #0]
    }
#endif

#if HAL_PLATFORM_RNG
    // Initialize the default stdlib PRNG using hardware RNG as a seed
    const uint32_t seed = HAL_RNG_GetRandomNumber();
   d49cc:	f7ff fc2e 	bl	d422c <HAL_RNG_GetRandomNumber>
   d49d0:	4604      	mov	r4, r0
    srand(seed);
   d49d2:	f001 fa4d 	bl	d5e70 <srand>

    // If the user defines random_seed_from_cloud, call it with a seed value
    // generated by a hardware RNG as well.
    if (random_seed_from_cloud) {
   d49d6:	4b0a      	ldr	r3, [pc, #40]	; (d4a00 <module_user_init_hook+0x50>)
   d49d8:	b113      	cbz	r3, d49e0 <module_user_init_hook+0x30>
        random_seed_from_cloud(seed);
   d49da:	4620      	mov	r0, r4
   d49dc:	f3af 8000 	nop.w
    }
#endif
    // Register the random_seed_from_cloud handler
    spark_set_random_seed_from_cloud_handler(&random_seed_from_cloud, nullptr);
   d49e0:	2100      	movs	r1, #0
   d49e2:	4807      	ldr	r0, [pc, #28]	; (d4a00 <module_user_init_hook+0x50>)
   d49e4:	f7ff fd7e 	bl	d44e4 <spark_set_random_seed_from_cloud_handler>

    // Register application handler for the control requests
    system_ctrl_set_app_request_handler(ctrl_request_handler, nullptr);
   d49e8:	2100      	movs	r1, #0
   d49ea:	4806      	ldr	r0, [pc, #24]	; (d4a04 <module_user_init_hook+0x54>)
}
   d49ec:	e8bd 4038 	ldmia.w	sp!, {r3, r4, r5, lr}
#endif
    // Register the random_seed_from_cloud handler
    spark_set_random_seed_from_cloud_handler(&random_seed_from_cloud, nullptr);

    // Register application handler for the control requests
    system_ctrl_set_app_request_handler(ctrl_request_handler, nullptr);
   d49f0:	f7ff bd14 	b.w	d441c <system_ctrl_set_app_request_handler>
   d49f4:	2003f400 	.word	0x2003f400
   d49f8:	9a271c1e 	.word	0x9a271c1e
   d49fc:	2003e404 	.word	0x2003e404
   d4a00:	00000000 	.word	0x00000000
   d4a04:	000d4979 	.word	0x000d4979

000d4a08 <_ZN9IPAddressD1Ev>:
    IPAddress(uint8_t first_octet, uint8_t second_octet, uint8_t third_octet, uint8_t fourth_octet);
    IPAddress(uint32_t address);
    IPAddress(const uint8_t* address);
    IPAddress(const HAL_IPAddress& address);

    virtual ~IPAddress() {}
   d4a08:	4770      	bx	lr

000d4a0a <_ZN9IPAddressD0Ev>:
   d4a0a:	b510      	push	{r4, lr}
   d4a0c:	2118      	movs	r1, #24
   d4a0e:	4604      	mov	r4, r0
   d4a10:	f000 fc00 	bl	d5214 <_ZdlPvj>
   d4a14:	4620      	mov	r0, r4
   d4a16:	bd10      	pop	{r4, pc}

000d4a18 <_ZNK9IPAddress7printToER5Print>:
#endif // Wiring_IPv6
	return address.ipv4==that.address.ipv4;
}

size_t IPAddress::printTo(Print& p) const
{
   d4a18:	b5f0      	push	{r4, r5, r6, r7, lr}
#if Wiring_IPv6
#if HAL_USE_INET_HAL_POSIX
	if (address.v==6) {
   d4a1a:	7d03      	ldrb	r3, [r0, #20]
   d4a1c:	2b06      	cmp	r3, #6
#endif // Wiring_IPv6
	return address.ipv4==that.address.ipv4;
}

size_t IPAddress::printTo(Print& p) const
{
   d4a1e:	b08d      	sub	sp, #52	; 0x34
   d4a20:	460e      	mov	r6, r1
   d4a22:	f100 0704 	add.w	r7, r0, #4
   d4a26:	f04f 0400 	mov.w	r4, #0
#if Wiring_IPv6
#if HAL_USE_INET_HAL_POSIX
	if (address.v==6) {
   d4a2a:	d002      	beq.n	d4a32 <_ZNK9IPAddress7printToER5Print+0x1a>
   d4a2c:	f100 0508 	add.w	r5, r0, #8
   d4a30:	e018      	b.n	d4a64 <_ZNK9IPAddress7printToER5Print+0x4c>
		char buf[INET6_ADDRSTRLEN+1];
		buf[0] = 0;
   d4a32:	ad0c      	add	r5, sp, #48	; 0x30
		inet_inet_ntop(AF_INET6, address.ipv6, buf, sizeof(buf));
   d4a34:	4639      	mov	r1, r7
{
#if Wiring_IPv6
#if HAL_USE_INET_HAL_POSIX
	if (address.v==6) {
		char buf[INET6_ADDRSTRLEN+1];
		buf[0] = 0;
   d4a36:	f805 4d30 	strb.w	r4, [r5, #-48]!
		inet_inet_ntop(AF_INET6, address.ipv6, buf, sizeof(buf));
   d4a3a:	232f      	movs	r3, #47	; 0x2f
   d4a3c:	462a      	mov	r2, r5
   d4a3e:	200a      	movs	r0, #10
   d4a40:	f7ff fc2c 	bl	d429c <inet_inet_ntop>
    void clearWriteError() { setWriteError(0); }

    virtual size_t write(uint8_t) = 0;
    size_t write(const char *str) {
      if (str == NULL) return 0;
      return write((const uint8_t *)str, strlen(str));
   d4a44:	4628      	mov	r0, r5
   d4a46:	f001 fa3b 	bl	d5ec0 <strlen>
   d4a4a:	6833      	ldr	r3, [r6, #0]
   d4a4c:	4602      	mov	r2, r0
   d4a4e:	68db      	ldr	r3, [r3, #12]
   d4a50:	4629      	mov	r1, r5
   d4a52:	4630      	mov	r0, r6
   d4a54:	4798      	blx	r3
   d4a56:	e00f      	b.n	d4a78 <_ZNK9IPAddress7printToER5Print+0x60>
#endif // HAL_USE_INET_HAL_POSIX
#endif // Wiring_IPv6
    size_t n = 0;
    for (int i = 0; i < 4; i++)
    {
        if (n)
   d4a58:	b124      	cbz	r4, d4a64 <_ZNK9IPAddress7printToER5Print+0x4c>
            n += p.print('.');
   d4a5a:	212e      	movs	r1, #46	; 0x2e
   d4a5c:	4630      	mov	r0, r6
   d4a5e:	f7ff fe13 	bl	d4688 <_ZN5Print5printEc>
   d4a62:	4404      	add	r4, r0
            t = print('-');
            val = -n;
        } else {
            val = n;
        }
        return printNumber(val, base) + t;
   d4a64:	f815 1d01 	ldrb.w	r1, [r5, #-1]!
   d4a68:	220a      	movs	r2, #10
   d4a6a:	4630      	mov	r0, r6
   d4a6c:	f7ff fe25 	bl	d46ba <_ZN5Print11printNumberEmh>
#else
#pragma message "HAL_USE_INET_HAL_POSIX is required for IPv6 support in IPAddress::printTo()"
#endif // HAL_USE_INET_HAL_POSIX
#endif // Wiring_IPv6
    size_t n = 0;
    for (int i = 0; i < 4; i++)
   d4a70:	42bd      	cmp	r5, r7
    {
        if (n)
            n += p.print('.');
        n += p.print((*this)[i], DEC);
   d4a72:	4404      	add	r4, r0
#else
#pragma message "HAL_USE_INET_HAL_POSIX is required for IPv6 support in IPAddress::printTo()"
#endif // HAL_USE_INET_HAL_POSIX
#endif // Wiring_IPv6
    size_t n = 0;
    for (int i = 0; i < 4; i++)
   d4a74:	d1f0      	bne.n	d4a58 <_ZNK9IPAddress7printToER5Print+0x40>
    {
        if (n)
            n += p.print('.');
        n += p.print((*this)[i], DEC);
   d4a76:	4620      	mov	r0, r4
    }
    return n;
}
   d4a78:	b00d      	add	sp, #52	; 0x34
   d4a7a:	bdf0      	pop	{r4, r5, r6, r7, pc}

000d4a7c <_ZN9IPAddressC1Ev>:

#if HAL_USE_INET_HAL_POSIX
#include <arpa/inet.h>
#endif // HAL_USE_INET_HAL_POSIX

IPAddress::IPAddress()
   d4a7c:	b510      	push	{r4, lr}
   d4a7e:	4b05      	ldr	r3, [pc, #20]	; (d4a94 <_ZN9IPAddressC1Ev+0x18>)
   d4a80:	4604      	mov	r4, r0
        return address;
    }

    virtual size_t printTo(Print& p) const;

    void clear() { memset(&address, 0, sizeof (address)); }
   d4a82:	2211      	movs	r2, #17
   d4a84:	f840 3b04 	str.w	r3, [r0], #4
   d4a88:	2100      	movs	r1, #0
   d4a8a:	f001 f9e8 	bl	d5e5e <memset>
{
    clear();
}
   d4a8e:	4620      	mov	r0, r4
   d4a90:	bd10      	pop	{r4, pc}
   d4a92:	bf00      	nop
   d4a94:	000d6054 	.word	0x000d6054

000d4a98 <_ZN9IPAddressC1ERK16_HAL_IPAddress_t>:

IPAddress::IPAddress(const HAL_IPAddress& address)
   d4a98:	4603      	mov	r3, r0
   d4a9a:	4a07      	ldr	r2, [pc, #28]	; (d4ab8 <_ZN9IPAddressC1ERK16_HAL_IPAddress_t+0x20>)
   d4a9c:	b510      	push	{r4, lr}
   d4a9e:	f843 2b04 	str.w	r2, [r3], #4
{
    memcpy(&this->address, &address, sizeof(address));
   d4aa2:	f101 0210 	add.w	r2, r1, #16
   d4aa6:	f851 4b04 	ldr.w	r4, [r1], #4
   d4aaa:	f843 4b04 	str.w	r4, [r3], #4
   d4aae:	4291      	cmp	r1, r2
   d4ab0:	d1f9      	bne.n	d4aa6 <_ZN9IPAddressC1ERK16_HAL_IPAddress_t+0xe>
   d4ab2:	780a      	ldrb	r2, [r1, #0]
   d4ab4:	701a      	strb	r2, [r3, #0]
}
   d4ab6:	bd10      	pop	{r4, pc}
   d4ab8:	000d6054 	.word	0x000d6054

000d4abc <_ZN9IPAddress8set_ipv4Ehhhh>:
    return address.ipv4!=0;
#endif
}

void IPAddress::set_ipv4(uint8_t b0, uint8_t b1, uint8_t b2, uint8_t b3)
{
   d4abc:	b510      	push	{r4, lr}
    address.ipv4 = b0<<24 | b1 << 16 | b2 << 8 | b3;
   d4abe:	f89d 4008 	ldrb.w	r4, [sp, #8]
   d4ac2:	ea44 2303 	orr.w	r3, r4, r3, lsl #8
   d4ac6:	ea43 4202 	orr.w	r2, r3, r2, lsl #16
   d4aca:	ea42 6101 	orr.w	r1, r2, r1, lsl #24
        return &address;
    }

    inline void setVersion(uint8_t version) {
#if HAL_IPv6
        address.v = version;
   d4ace:	2304      	movs	r3, #4
   d4ad0:	6041      	str	r1, [r0, #4]
   d4ad2:	7503      	strb	r3, [r0, #20]
   d4ad4:	bd10      	pop	{r4, pc}

000d4ad6 <_ZN9IPAddressaSEPKh>:
    setVersion(4);
}

IPAddress& IPAddress::operator=(const uint8_t* address)
{
   d4ad6:	b537      	push	{r0, r1, r2, r4, r5, lr}
    set_ipv4(address[0], address[1], address[2], address[3]);
   d4ad8:	780d      	ldrb	r5, [r1, #0]
   d4ada:	788b      	ldrb	r3, [r1, #2]
   d4adc:	784a      	ldrb	r2, [r1, #1]
   d4ade:	78c9      	ldrb	r1, [r1, #3]
   d4ae0:	9100      	str	r1, [sp, #0]
   d4ae2:	4629      	mov	r1, r5
   d4ae4:	f7ff ffea 	bl	d4abc <_ZN9IPAddress8set_ipv4Ehhhh>
    return *this;
}
   d4ae8:	b003      	add	sp, #12
   d4aea:	bd30      	pop	{r4, r5, pc}

000d4aec <_ZN9USBSerial14blockOnOverrunEb>:
  HAL_USB_USART_Flush_Data(_serial);
}

void USBSerial::blockOnOverrun(bool block)
{
  _blocking = block;
   d4aec:	7441      	strb	r1, [r0, #17]
   d4aee:	4770      	bx	lr

000d4af0 <_ZN9USBSerialD1Ev>:
#include "usb_hal.h"
#include "system_task.h"
#include "spark_wiring_startup.h"
#include "concurrent_hal.h"

class USBSerial : public Stream
   d4af0:	4770      	bx	lr

000d4af2 <_ZN9USBSerial4readEv>:
}


// Read data from buffer
int USBSerial::read()
{
   d4af2:	b508      	push	{r3, lr}
	return std::max(-1, (int)HAL_USB_USART_Receive_Data(_serial, false));
   d4af4:	2100      	movs	r1, #0
   d4af6:	7c00      	ldrb	r0, [r0, #16]
   d4af8:	f7ff fc70 	bl	d43dc <HAL_USB_USART_Receive_Data>
}
   d4afc:	ea30 0020 	bics.w	r0, r0, r0, asr #32
   d4b00:	bf28      	it	cs
   d4b02:	f04f 30ff 	movcs.w	r0, #4294967295
   d4b06:	bd08      	pop	{r3, pc}

000d4b08 <_ZN9USBSerial4peekEv>:
{
  _blocking = block;
}

int USBSerial::peek()
{
   d4b08:	b508      	push	{r3, lr}
	return std::max(-1, (int)HAL_USB_USART_Receive_Data(_serial, true));
   d4b0a:	2101      	movs	r1, #1
   d4b0c:	7c00      	ldrb	r0, [r0, #16]
   d4b0e:	f7ff fc65 	bl	d43dc <HAL_USB_USART_Receive_Data>
}
   d4b12:	ea30 0020 	bics.w	r0, r0, r0, asr #32
   d4b16:	bf28      	it	cs
   d4b18:	f04f 30ff 	movcs.w	r0, #4294967295
   d4b1c:	bd08      	pop	{r3, pc}

000d4b1e <_ZN9USBSerial17availableForWriteEv>:
{
	return std::max(-1, (int)HAL_USB_USART_Receive_Data(_serial, false));
}

int USBSerial::availableForWrite()
{
   d4b1e:	b508      	push	{r3, lr}
  return std::max(0, (int)HAL_USB_USART_Available_Data_For_Write(_serial));
   d4b20:	7c00      	ldrb	r0, [r0, #16]
   d4b22:	f7ff fc53 	bl	d43cc <HAL_USB_USART_Available_Data_For_Write>
}
   d4b26:	ea20 70e0 	bic.w	r0, r0, r0, asr #31
   d4b2a:	bd08      	pop	{r3, pc}

000d4b2c <_ZN9USBSerial9availableEv>:

int USBSerial::available()
{
   d4b2c:	b508      	push	{r3, lr}
	return std::max(0, (int)HAL_USB_USART_Available_Data(_serial));
   d4b2e:	7c00      	ldrb	r0, [r0, #16]
   d4b30:	f7ff fc44 	bl	d43bc <HAL_USB_USART_Available_Data>
}
   d4b34:	ea20 70e0 	bic.w	r0, r0, r0, asr #31
   d4b38:	bd08      	pop	{r3, pc}

000d4b3a <_ZN9USBSerial5flushEv>:
  return 0;
}

void USBSerial::flush()
{
  HAL_USB_USART_Flush_Data(_serial);
   d4b3a:	7c00      	ldrb	r0, [r0, #16]
   d4b3c:	f7ff bc5e 	b.w	d43fc <HAL_USB_USART_Flush_Data>

000d4b40 <_ZN9USBSerialD0Ev>:
   d4b40:	b510      	push	{r4, lr}
   d4b42:	2114      	movs	r1, #20
   d4b44:	4604      	mov	r4, r0
   d4b46:	f000 fb65 	bl	d5214 <_ZdlPvj>
   d4b4a:	4620      	mov	r0, r4
   d4b4c:	bd10      	pop	{r4, pc}

000d4b4e <_ZN9USBSerial5writeEh>:
{
	return std::max(0, (int)HAL_USB_USART_Available_Data(_serial));
}

size_t USBSerial::write(uint8_t byte)
{
   d4b4e:	b538      	push	{r3, r4, r5, lr}
   d4b50:	4604      	mov	r4, r0
  if (HAL_USB_USART_Available_Data_For_Write(_serial) > 0 || _blocking) {
   d4b52:	7c00      	ldrb	r0, [r0, #16]
{
	return std::max(0, (int)HAL_USB_USART_Available_Data(_serial));
}

size_t USBSerial::write(uint8_t byte)
{
   d4b54:	460d      	mov	r5, r1
  if (HAL_USB_USART_Available_Data_For_Write(_serial) > 0 || _blocking) {
   d4b56:	f7ff fc39 	bl	d43cc <HAL_USB_USART_Available_Data_For_Write>
   d4b5a:	2800      	cmp	r0, #0
   d4b5c:	dc01      	bgt.n	d4b62 <_ZN9USBSerial5writeEh+0x14>
   d4b5e:	7c60      	ldrb	r0, [r4, #17]
   d4b60:	b128      	cbz	r0, d4b6e <_ZN9USBSerial5writeEh+0x20>
    return std::max(0, (int)HAL_USB_USART_Send_Data(_serial, byte));
   d4b62:	4629      	mov	r1, r5
   d4b64:	7c20      	ldrb	r0, [r4, #16]
   d4b66:	f7ff fc41 	bl	d43ec <HAL_USB_USART_Send_Data>
   d4b6a:	ea20 70e0 	bic.w	r0, r0, r0, asr #31
  }
  return 0;
}
   d4b6e:	bd38      	pop	{r3, r4, r5, pc}

000d4b70 <_ZN9USBSerialC1E20HAL_USB_USART_SerialRK20HAL_USB_USART_Config>:

  HAL_USB_USART_Config conf = acquireSerialBuffer();
  HAL_USB_USART_Init(_serial, &conf);
}

USBSerial::USBSerial(HAL_USB_USART_Serial serial, const HAL_USB_USART_Config& conf)
   d4b70:	b510      	push	{r4, lr}
   d4b72:	4604      	mov	r4, r0
  protected:
    void setWriteError(int err = 1) { write_error = err; }
    size_t printf_impl(bool newline, const char* format, ...);

  public:
    Print() : write_error(0) {}
   d4b74:	2300      	movs	r3, #0
   d4b76:	6063      	str	r3, [r4, #4]
    virtual int available() = 0;
    virtual int read() = 0;
    virtual int peek() = 0;
    virtual void flush() = 0;

    Stream() {_timeout=1000;}
   d4b78:	f44f 737a 	mov.w	r3, #1000	; 0x3e8
   d4b7c:	60a3      	str	r3, [r4, #8]
   d4b7e:	4b05      	ldr	r3, [pc, #20]	; (d4b94 <_ZN9USBSerialC1E20HAL_USB_USART_SerialRK20HAL_USB_USART_Config+0x24>)
   d4b80:	6023      	str	r3, [r4, #0]
{
  _serial = serial;
  _blocking = true;
   d4b82:	2301      	movs	r3, #1

  HAL_USB_USART_Config conf = acquireSerialBuffer();
  HAL_USB_USART_Init(_serial, &conf);
}

USBSerial::USBSerial(HAL_USB_USART_Serial serial, const HAL_USB_USART_Config& conf)
   d4b84:	4608      	mov	r0, r1
{
  _serial = serial;
   d4b86:	7421      	strb	r1, [r4, #16]
  _blocking = true;
   d4b88:	7463      	strb	r3, [r4, #17]

  HAL_USB_USART_Init(_serial, &conf);
   d4b8a:	4611      	mov	r1, r2
   d4b8c:	f7ff fc06 	bl	d439c <HAL_USB_USART_Init>
}
   d4b90:	4620      	mov	r0, r4
   d4b92:	bd10      	pop	{r4, pc}
   d4b94:	000d6068 	.word	0x000d6068

000d4b98 <_ZN9USBSerial5beginEl>:
// Public methods
//

void USBSerial::begin(long speed)
{
    HAL_USB_USART_Begin(_serial, speed, NULL);
   d4b98:	2200      	movs	r2, #0
   d4b9a:	7c00      	ldrb	r0, [r0, #16]
   d4b9c:	f7ff bc06 	b.w	d43ac <HAL_USB_USART_Begin>

000d4ba0 <_Z19acquireSerialBufferv>:

// Preinstantiate Objects //////////////////////////////////////////////////////
#ifdef SPARK_USB_SERIAL

HAL_USB_USART_Config __attribute__((weak)) acquireSerialBuffer()
{
   d4ba0:	b510      	push	{r4, lr}
  HAL_USB_USART_Config conf = {0};
   d4ba2:	2214      	movs	r2, #20

// Preinstantiate Objects //////////////////////////////////////////////////////
#ifdef SPARK_USB_SERIAL

HAL_USB_USART_Config __attribute__((weak)) acquireSerialBuffer()
{
   d4ba4:	4604      	mov	r4, r0
  HAL_USB_USART_Config conf = {0};
   d4ba6:	2100      	movs	r1, #0
   d4ba8:	f001 f959 	bl	d5e5e <memset>
  conf.rx_buffer_size = USB_RX_BUFFER_SIZE;
  conf.tx_buffer_size = USB_TX_BUFFER_SIZE;
#endif

  return conf;
}
   d4bac:	4620      	mov	r0, r4
   d4bae:	bd10      	pop	{r4, pc}

000d4bb0 <_Z16_fetch_usbserialv>:

USBSerial& _fetch_usbserial()
{
   d4bb0:	b530      	push	{r4, r5, lr}
  HAL_USB_USART_Config conf = acquireSerialBuffer();
	static USBSerial _usbserial(HAL_USB_USART_SERIAL, conf);
   d4bb2:	4d0e      	ldr	r5, [pc, #56]	; (d4bec <_Z16_fetch_usbserialv+0x3c>)

  return conf;
}

USBSerial& _fetch_usbserial()
{
   d4bb4:	b087      	sub	sp, #28
  HAL_USB_USART_Config conf = acquireSerialBuffer();
   d4bb6:	a801      	add	r0, sp, #4
   d4bb8:	f7ff fff2 	bl	d4ba0 <_Z19acquireSerialBufferv>
	static USBSerial _usbserial(HAL_USB_USART_SERIAL, conf);
   d4bbc:	6829      	ldr	r1, [r5, #0]
   d4bbe:	f011 0401 	ands.w	r4, r1, #1
   d4bc2:	d110      	bne.n	d4be6 <_Z16_fetch_usbserialv+0x36>
   d4bc4:	4628      	mov	r0, r5
   d4bc6:	f7ff fa6a 	bl	d409e <__cxa_guard_acquire>
   d4bca:	b160      	cbz	r0, d4be6 <_Z16_fetch_usbserialv+0x36>
   d4bcc:	aa01      	add	r2, sp, #4
   d4bce:	4621      	mov	r1, r4
   d4bd0:	4807      	ldr	r0, [pc, #28]	; (d4bf0 <_Z16_fetch_usbserialv+0x40>)
   d4bd2:	f7ff ffcd 	bl	d4b70 <_ZN9USBSerialC1E20HAL_USB_USART_SerialRK20HAL_USB_USART_Config>
   d4bd6:	4628      	mov	r0, r5
   d4bd8:	f7ff fa66 	bl	d40a8 <__cxa_guard_release>
   d4bdc:	4a05      	ldr	r2, [pc, #20]	; (d4bf4 <_Z16_fetch_usbserialv+0x44>)
   d4bde:	4906      	ldr	r1, [pc, #24]	; (d4bf8 <_Z16_fetch_usbserialv+0x48>)
   d4be0:	4803      	ldr	r0, [pc, #12]	; (d4bf0 <_Z16_fetch_usbserialv+0x40>)
   d4be2:	f000 fb09 	bl	d51f8 <__aeabi_atexit>
	return _usbserial;
}
   d4be6:	4802      	ldr	r0, [pc, #8]	; (d4bf0 <_Z16_fetch_usbserialv+0x40>)
   d4be8:	b007      	add	sp, #28
   d4bea:	bd30      	pop	{r4, r5, pc}
   d4bec:	2003e408 	.word	0x2003e408
   d4bf0:	2003e40c 	.word	0x2003e40c
   d4bf4:	2003e3cc 	.word	0x2003e3cc
   d4bf8:	000d4af1 	.word	0x000d4af1

000d4bfc <_ZN11USARTSerialD1Ev>:
private:
  HAL_USART_Serial _serial;
  bool _blocking;
public:
  USARTSerial(HAL_USART_Serial serial, Ring_Buffer *rx_buffer, Ring_Buffer *tx_buffer);
  virtual ~USARTSerial() {};
   d4bfc:	4770      	bx	lr

000d4bfe <_ZN11USARTSerial14blockOnOverrunEb>:
    HAL_USART_Half_Duplex(_serial, Enable);
}

void USARTSerial::blockOnOverrun(bool block)
{
  _blocking = block;
   d4bfe:	7441      	strb	r1, [r0, #17]
   d4c00:	4770      	bx	lr

000d4c02 <_ZN11USARTSerial17availableForWriteEv>:
}


int USARTSerial::availableForWrite(void)
{
   d4c02:	b508      	push	{r3, lr}
  return std::max(0, (int)HAL_USART_Available_Data_For_Write(_serial));
   d4c04:	7c00      	ldrb	r0, [r0, #16]
   d4c06:	f7ff fb89 	bl	d431c <HAL_USART_Available_Data_For_Write>
}
   d4c0a:	ea20 70e0 	bic.w	r0, r0, r0, asr #31
   d4c0e:	bd08      	pop	{r3, pc}

000d4c10 <_ZN11USARTSerial9availableEv>:

int USARTSerial::available(void)
{
   d4c10:	b508      	push	{r3, lr}
  return std::max(0, (int)HAL_USART_Available_Data(_serial));
   d4c12:	7c00      	ldrb	r0, [r0, #16]
   d4c14:	f7ff fb5a 	bl	d42cc <HAL_USART_Available_Data>
}
   d4c18:	ea20 70e0 	bic.w	r0, r0, r0, asr #31
   d4c1c:	bd08      	pop	{r3, pc}

000d4c1e <_ZN11USARTSerial4peekEv>:

int USARTSerial::peek(void)
{
   d4c1e:	b508      	push	{r3, lr}
  return std::max(-1, (int)HAL_USART_Peek_Data(_serial));
   d4c20:	7c00      	ldrb	r0, [r0, #16]
   d4c22:	f7ff fb63 	bl	d42ec <HAL_USART_Peek_Data>
}
   d4c26:	ea30 0020 	bics.w	r0, r0, r0, asr #32
   d4c2a:	bf28      	it	cs
   d4c2c:	f04f 30ff 	movcs.w	r0, #4294967295
   d4c30:	bd08      	pop	{r3, pc}

000d4c32 <_ZN11USARTSerial4readEv>:

int USARTSerial::read(void)
{
   d4c32:	b508      	push	{r3, lr}
  return std::max(-1, (int)HAL_USART_Read_Data(_serial));
   d4c34:	7c00      	ldrb	r0, [r0, #16]
   d4c36:	f7ff fb51 	bl	d42dc <HAL_USART_Read_Data>
}
   d4c3a:	ea30 0020 	bics.w	r0, r0, r0, asr #32
   d4c3e:	bf28      	it	cs
   d4c40:	f04f 30ff 	movcs.w	r0, #4294967295
   d4c44:	bd08      	pop	{r3, pc}

000d4c46 <_ZN11USARTSerial5flushEv>:

void USARTSerial::flush()
{
  HAL_USART_Flush_Data(_serial);
   d4c46:	7c00      	ldrb	r0, [r0, #16]
   d4c48:	f7ff bb58 	b.w	d42fc <HAL_USART_Flush_Data>

000d4c4c <_ZN11USARTSerialD0Ev>:
   d4c4c:	b510      	push	{r4, lr}
   d4c4e:	2114      	movs	r1, #20
   d4c50:	4604      	mov	r4, r0
   d4c52:	f000 fadf 	bl	d5214 <_ZdlPvj>
   d4c56:	4620      	mov	r0, r4
   d4c58:	bd10      	pop	{r4, pc}

000d4c5a <_ZN11USARTSerial5writeEh>:
}

size_t USARTSerial::write(uint8_t c)
{
   d4c5a:	b570      	push	{r4, r5, r6, lr}
  // attempt a write if blocking, or for non-blocking if there is room.
  if (_blocking || HAL_USART_Available_Data_For_Write(_serial) > 0) {
   d4c5c:	7c45      	ldrb	r5, [r0, #17]
{
  HAL_USART_Flush_Data(_serial);
}

size_t USARTSerial::write(uint8_t c)
{
   d4c5e:	4604      	mov	r4, r0
   d4c60:	460e      	mov	r6, r1
  // attempt a write if blocking, or for non-blocking if there is room.
  if (_blocking || HAL_USART_Available_Data_For_Write(_serial) > 0) {
   d4c62:	b925      	cbnz	r5, d4c6e <_ZN11USARTSerial5writeEh+0x14>
   d4c64:	7c00      	ldrb	r0, [r0, #16]
   d4c66:	f7ff fb59 	bl	d431c <HAL_USART_Available_Data_For_Write>
   d4c6a:	2800      	cmp	r0, #0
   d4c6c:	dd05      	ble.n	d4c7a <_ZN11USARTSerial5writeEh+0x20>
    // the HAL always blocks.
	  return HAL_USART_Write_Data(_serial, c);
   d4c6e:	4631      	mov	r1, r6
   d4c70:	7c20      	ldrb	r0, [r4, #16]
  }
  return 0;
}
   d4c72:	e8bd 4070 	ldmia.w	sp!, {r4, r5, r6, lr}
size_t USARTSerial::write(uint8_t c)
{
  // attempt a write if blocking, or for non-blocking if there is room.
  if (_blocking || HAL_USART_Available_Data_For_Write(_serial) > 0) {
    // the HAL always blocks.
	  return HAL_USART_Write_Data(_serial, c);
   d4c76:	f7ff bb21 	b.w	d42bc <HAL_USART_Write_Data>
  }
  return 0;
}
   d4c7a:	4628      	mov	r0, r5
   d4c7c:	bd70      	pop	{r4, r5, r6, pc}
	...

000d4c80 <_ZN11USARTSerialC1E16HAL_USART_SerialP11Ring_BufferS2_>:
#include "spark_wiring_constants.h"
#include "module_info.h"

// Constructors ////////////////////////////////////////////////////////////////

USARTSerial::USARTSerial(HAL_USART_Serial serial, Ring_Buffer *rx_buffer, Ring_Buffer *tx_buffer)
   d4c80:	b510      	push	{r4, lr}
   d4c82:	4604      	mov	r4, r0
   d4c84:	4608      	mov	r0, r1
   d4c86:	4611      	mov	r1, r2
   d4c88:	2200      	movs	r2, #0
   d4c8a:	6062      	str	r2, [r4, #4]
   d4c8c:	f44f 727a 	mov.w	r2, #1000	; 0x3e8
   d4c90:	60a2      	str	r2, [r4, #8]
   d4c92:	4a05      	ldr	r2, [pc, #20]	; (d4ca8 <_ZN11USARTSerialC1E16HAL_USART_SerialP11Ring_BufferS2_+0x28>)
   d4c94:	6022      	str	r2, [r4, #0]
{
  _serial = serial;
  // Default is blocking mode
  _blocking = true;
   d4c96:	2201      	movs	r2, #1

// Constructors ////////////////////////////////////////////////////////////////

USARTSerial::USARTSerial(HAL_USART_Serial serial, Ring_Buffer *rx_buffer, Ring_Buffer *tx_buffer)
{
  _serial = serial;
   d4c98:	7420      	strb	r0, [r4, #16]
  // Default is blocking mode
  _blocking = true;
   d4c9a:	7462      	strb	r2, [r4, #17]
  HAL_USART_Init(serial, rx_buffer, tx_buffer);
   d4c9c:	461a      	mov	r2, r3
   d4c9e:	f7ff fb05 	bl	d42ac <HAL_USART_Init>
}
   d4ca2:	4620      	mov	r0, r4
   d4ca4:	bd10      	pop	{r4, pc}
   d4ca6:	bf00      	nop
   d4ca8:	000d6098 	.word	0x000d6098

000d4cac <_ZN11USARTSerial9isEnabledEv>:
USARTSerial::operator bool() {
  return true;
}

bool USARTSerial::isEnabled() {
  return HAL_USART_Is_Enabled(_serial);
   d4cac:	7c00      	ldrb	r0, [r0, #16]
   d4cae:	f7ff bb2d 	b.w	d430c <HAL_USART_Is_Enabled>
	...

000d4cb4 <_Z22__fetch_global_Serial1v>:
static Ring_Buffer* serial1_rx_buffer = NULL;
static Ring_Buffer* serial1_tx_buffer = NULL;
#endif

USARTSerial& __fetch_global_Serial1()
{
   d4cb4:	b538      	push	{r3, r4, r5, lr}
#if ((MODULE_FUNCTION == MOD_FUNC_USER_PART) || (MODULE_FUNCTION == MOD_FUNC_MONO_FIRMWARE))
	static USARTSerial serial1(HAL_USART_SERIAL1, &serial1_rx_buffer, &serial1_tx_buffer);
   d4cb6:	4d0c      	ldr	r5, [pc, #48]	; (d4ce8 <_Z22__fetch_global_Serial1v+0x34>)
   d4cb8:	6829      	ldr	r1, [r5, #0]
   d4cba:	f011 0401 	ands.w	r4, r1, #1
   d4cbe:	d111      	bne.n	d4ce4 <_Z22__fetch_global_Serial1v+0x30>
   d4cc0:	4628      	mov	r0, r5
   d4cc2:	f7ff f9ec 	bl	d409e <__cxa_guard_acquire>
   d4cc6:	b168      	cbz	r0, d4ce4 <_Z22__fetch_global_Serial1v+0x30>
   d4cc8:	4a08      	ldr	r2, [pc, #32]	; (d4cec <_Z22__fetch_global_Serial1v+0x38>)
   d4cca:	4b09      	ldr	r3, [pc, #36]	; (d4cf0 <_Z22__fetch_global_Serial1v+0x3c>)
   d4ccc:	4809      	ldr	r0, [pc, #36]	; (d4cf4 <_Z22__fetch_global_Serial1v+0x40>)
   d4cce:	4621      	mov	r1, r4
   d4cd0:	f7ff ffd6 	bl	d4c80 <_ZN11USARTSerialC1E16HAL_USART_SerialP11Ring_BufferS2_>
   d4cd4:	4628      	mov	r0, r5
   d4cd6:	f7ff f9e7 	bl	d40a8 <__cxa_guard_release>
   d4cda:	4a07      	ldr	r2, [pc, #28]	; (d4cf8 <_Z22__fetch_global_Serial1v+0x44>)
   d4cdc:	4907      	ldr	r1, [pc, #28]	; (d4cfc <_Z22__fetch_global_Serial1v+0x48>)
   d4cde:	4805      	ldr	r0, [pc, #20]	; (d4cf4 <_Z22__fetch_global_Serial1v+0x40>)
   d4ce0:	f000 fa8a 	bl	d51f8 <__aeabi_atexit>
    serial1_tx_buffer = new Ring_Buffer();
  }
  static USARTSerial serial1(HAL_USART_SERIAL1, serial1_rx_buffer, serial1_tx_buffer);
#endif
	return serial1;
}
   d4ce4:	4803      	ldr	r0, [pc, #12]	; (d4cf4 <_Z22__fetch_global_Serial1v+0x40>)
   d4ce6:	bd38      	pop	{r3, r4, r5, pc}
   d4ce8:	2003e4b8 	.word	0x2003e4b8
   d4cec:	2003e4bc 	.word	0x2003e4bc
   d4cf0:	2003e434 	.word	0x2003e434
   d4cf4:	2003e420 	.word	0x2003e420
   d4cf8:	2003e3cc 	.word	0x2003e3cc
   d4cfc:	000d4bfd 	.word	0x000d4bfd

000d4d00 <_ZN7TwoWireD1Ev>:
private:
  HAL_I2C_Interface _i2c;

public:
  TwoWire(HAL_I2C_Interface i2c, const HAL_I2C_Config& config);
  virtual ~TwoWire() {};
   d4d00:	4770      	bx	lr

000d4d02 <_ZN7TwoWire5writeEPKhj>:

// must be called in:
// slave tx event callback
// or after beginTransmission(address)
size_t TwoWire::write(const uint8_t *data, size_t quantity)
{
   d4d02:	b5f8      	push	{r3, r4, r5, r6, r7, lr}
   d4d04:	4606      	mov	r6, r0
   d4d06:	4615      	mov	r5, r2
   d4d08:	460c      	mov	r4, r1
   d4d0a:	188f      	adds	r7, r1, r2
  // in master/slave transmitter mode
  for(size_t i = 0; i < quantity; ++i)
   d4d0c:	42bc      	cmp	r4, r7
   d4d0e:	d006      	beq.n	d4d1e <_ZN7TwoWire5writeEPKhj+0x1c>
  {
    write(data[i]);
   d4d10:	6833      	ldr	r3, [r6, #0]
   d4d12:	f814 1b01 	ldrb.w	r1, [r4], #1
   d4d16:	689b      	ldr	r3, [r3, #8]
   d4d18:	4630      	mov	r0, r6
   d4d1a:	4798      	blx	r3
// slave tx event callback
// or after beginTransmission(address)
size_t TwoWire::write(const uint8_t *data, size_t quantity)
{
  // in master/slave transmitter mode
  for(size_t i = 0; i < quantity; ++i)
   d4d1c:	e7f6      	b.n	d4d0c <_ZN7TwoWire5writeEPKhj+0xa>
  {
    write(data[i]);
  }

  return quantity;
}
   d4d1e:	4628      	mov	r0, r5
   d4d20:	bdf8      	pop	{r3, r4, r5, r6, r7, pc}

000d4d22 <_ZN7TwoWire5writeEh>:
// must be called in:
// slave tx event callback
// or after beginTransmission(address)
size_t TwoWire::write(uint8_t data)
{
  return HAL_I2C_Write_Data(_i2c, data, NULL);
   d4d22:	2200      	movs	r2, #0
   d4d24:	7c00      	ldrb	r0, [r0, #16]
   d4d26:	f7ff bb01 	b.w	d432c <HAL_I2C_Write_Data>

000d4d2a <_ZN7TwoWire9availableEv>:
// must be called in:
// slave rx event callback
// or after requestFrom(address, numBytes)
int TwoWire::available(void)
{
  return HAL_I2C_Available_Data(_i2c, NULL);
   d4d2a:	2100      	movs	r1, #0
   d4d2c:	7c00      	ldrb	r0, [r0, #16]
   d4d2e:	f7ff bb05 	b.w	d433c <HAL_I2C_Available_Data>

000d4d32 <_ZN7TwoWire4readEv>:
// must be called in:
// slave rx event callback
// or after requestFrom(address, numBytes)
int TwoWire::read(void)
{
  return HAL_I2C_Read_Data(_i2c, NULL);
   d4d32:	2100      	movs	r1, #0
   d4d34:	7c00      	ldrb	r0, [r0, #16]
   d4d36:	f7ff bb09 	b.w	d434c <HAL_I2C_Read_Data>

000d4d3a <_ZN7TwoWire4peekEv>:
// must be called in:
// slave rx event callback
// or after requestFrom(address, numBytes)
int TwoWire::peek(void)
{
  return HAL_I2C_Peek_Data(_i2c, NULL);
   d4d3a:	2100      	movs	r1, #0
   d4d3c:	7c00      	ldrb	r0, [r0, #16]
   d4d3e:	f7ff bb0d 	b.w	d435c <HAL_I2C_Peek_Data>

000d4d42 <_ZN7TwoWire5flushEv>:
}

void TwoWire::flush(void)
{
  HAL_I2C_Flush_Data(_i2c, NULL);
   d4d42:	2100      	movs	r1, #0
   d4d44:	7c00      	ldrb	r0, [r0, #16]
   d4d46:	f7ff bb11 	b.w	d436c <HAL_I2C_Flush_Data>

000d4d4a <_ZN7TwoWireD0Ev>:
   d4d4a:	b510      	push	{r4, lr}
   d4d4c:	2114      	movs	r1, #20
   d4d4e:	4604      	mov	r4, r0
   d4d50:	f000 fa60 	bl	d5214 <_ZdlPvj>
   d4d54:	4620      	mov	r0, r4
   d4d56:	bd10      	pop	{r4, pc}

000d4d58 <_ZN7TwoWireC1E17HAL_I2C_InterfaceRK14HAL_I2C_Config>:
#include "i2c_hal.h"
#include "spark_wiring_thread.h"

// Constructors ////////////////////////////////////////////////////////////////

TwoWire::TwoWire(HAL_I2C_Interface i2c, const HAL_I2C_Config& conf)
   d4d58:	b510      	push	{r4, lr}
   d4d5a:	4604      	mov	r4, r0
   d4d5c:	2300      	movs	r3, #0
   d4d5e:	6063      	str	r3, [r4, #4]
   d4d60:	f44f 737a 	mov.w	r3, #1000	; 0x3e8
   d4d64:	60a3      	str	r3, [r4, #8]
   d4d66:	4b04      	ldr	r3, [pc, #16]	; (d4d78 <_ZN7TwoWireC1E17HAL_I2C_InterfaceRK14HAL_I2C_Config+0x20>)
{
  _i2c = i2c;
   d4d68:	7421      	strb	r1, [r4, #16]
#include "i2c_hal.h"
#include "spark_wiring_thread.h"

// Constructors ////////////////////////////////////////////////////////////////

TwoWire::TwoWire(HAL_I2C_Interface i2c, const HAL_I2C_Config& conf)
   d4d6a:	4608      	mov	r0, r1
   d4d6c:	6023      	str	r3, [r4, #0]
{
  _i2c = i2c;
  HAL_I2C_Init(_i2c, &conf);
   d4d6e:	4611      	mov	r1, r2
   d4d70:	f7ff fb0c 	bl	d438c <HAL_I2C_Init>
}
   d4d74:	4620      	mov	r0, r4
   d4d76:	bd10      	pop	{r4, pc}
   d4d78:	000d60c8 	.word	0x000d60c8

000d4d7c <_ZN7TwoWire9isEnabledEv>:
  HAL_I2C_Set_Callback_On_Request(_i2c, function, NULL);
}

bool TwoWire::isEnabled()
{
  return HAL_I2C_Is_Enabled(_i2c, NULL);
   d4d7c:	2100      	movs	r1, #0
   d4d7e:	7c00      	ldrb	r0, [r0, #16]
   d4d80:	f7ff bafc 	b.w	d437c <HAL_I2C_Is_Enabled>

000d4d84 <_ZN5spark9MeshClass9listeningEv>:
    uint16_t getListenTimeout(void) {
        return network_get_listen_timeout(*this, 0, NULL);
    }

    bool listening(void) {
        return network_listening(*this, 0, NULL);
   d4d84:	2200      	movs	r2, #0
   d4d86:	4611      	mov	r1, r2
   d4d88:	6840      	ldr	r0, [r0, #4]
   d4d8a:	f7ff bb93 	b.w	d44b4 <network_listening>

000d4d8e <_ZN5spark9MeshClass16getListenTimeoutEv>:
    void setListenTimeout(uint16_t timeout) {
        network_set_listen_timeout(*this, timeout, NULL);
    }

    uint16_t getListenTimeout(void) {
        return network_get_listen_timeout(*this, 0, NULL);
   d4d8e:	2200      	movs	r2, #0
   d4d90:	4611      	mov	r1, r2
   d4d92:	6840      	ldr	r0, [r0, #4]
   d4d94:	f7ff bb9e 	b.w	d44d4 <network_get_listen_timeout>

000d4d98 <_ZN5spark9MeshClass16setListenTimeoutEt>:
    void listen(bool begin=true) {
        network_listen(*this, begin ? 0 : 1, NULL);
    }

    void setListenTimeout(uint16_t timeout) {
        network_set_listen_timeout(*this, timeout, NULL);
   d4d98:	2200      	movs	r2, #0
   d4d9a:	6840      	ldr	r0, [r0, #4]
   d4d9c:	f7ff bb92 	b.w	d44c4 <network_set_listen_timeout>

000d4da0 <_ZN5spark9MeshClass6listenEb>:
    void disconnect() {
        network_disconnect(*this, NETWORK_DISCONNECT_REASON_USER, NULL);
    }

    void listen(bool begin=true) {
        network_listen(*this, begin ? 0 : 1, NULL);
   d4da0:	2200      	movs	r2, #0
   d4da2:	f081 0101 	eor.w	r1, r1, #1
   d4da6:	6840      	ldr	r0, [r0, #4]
   d4da8:	f7ff bb7c 	b.w	d44a4 <network_listen>

000d4dac <_ZN5spark9MeshClass3offEv>:
    void on() {
        network_on(*this, 0, 0, NULL);
    }

    void off() {
        network_off(*this, 1, 0, NULL);
   d4dac:	2300      	movs	r3, #0
   d4dae:	461a      	mov	r2, r3
   d4db0:	2101      	movs	r1, #1
   d4db2:	6840      	ldr	r0, [r0, #4]
   d4db4:	f7ff bb6e 	b.w	d4494 <network_off>

000d4db8 <_ZN5spark9MeshClass2onEv>:
    MeshClass() :
            NetworkClass(NETWORK_INTERFACE_MESH) {
    }

    void on() {
        network_on(*this, 0, 0, NULL);
   d4db8:	2300      	movs	r3, #0
   d4dba:	461a      	mov	r2, r3
   d4dbc:	4619      	mov	r1, r3
   d4dbe:	6840      	ldr	r0, [r0, #4]
   d4dc0:	f7ff bb60 	b.w	d4484 <network_on>

000d4dc4 <_ZN5spark9MeshClass5readyEv>:
    bool listening(void) {
        return network_listening(*this, 0, NULL);
    }

    bool ready() {
        return network_ready(*this, 0,  NULL);
   d4dc4:	2200      	movs	r2, #0
   d4dc6:	4611      	mov	r1, r2
   d4dc8:	6840      	ldr	r0, [r0, #4]
   d4dca:	f7ff bb53 	b.w	d4474 <network_ready>

000d4dce <_ZN5spark9MeshClass10connectingEv>:
    void connect(unsigned flags=0) {
        network_connect(*this, flags, 0, NULL);
    }

    bool connecting(void) {
        return network_connecting(*this, 0, NULL);
   d4dce:	2200      	movs	r2, #0
   d4dd0:	4611      	mov	r1, r2
   d4dd2:	6840      	ldr	r0, [r0, #4]
   d4dd4:	f7ff bb3e 	b.w	d4454 <network_connecting>

000d4dd8 <_ZN5spark9MeshClass10disconnectEv>:
    }

    void disconnect() {
        network_disconnect(*this, NETWORK_DISCONNECT_REASON_USER, NULL);
   d4dd8:	2200      	movs	r2, #0
   d4dda:	2102      	movs	r1, #2
   d4ddc:	6840      	ldr	r0, [r0, #4]
   d4dde:	f7ff bb41 	b.w	d4464 <network_disconnect>

000d4de2 <_ZN5spark9MeshClass7connectEj>:
    void off() {
        network_off(*this, 1, 0, NULL);
    }

    void connect(unsigned flags=0) {
        network_connect(*this, flags, 0, NULL);
   d4de2:	2300      	movs	r3, #0
   d4de4:	461a      	mov	r2, r3
   d4de6:	6840      	ldr	r0, [r0, #4]
   d4de8:	f7ff bb2c 	b.w	d4444 <network_connect>

000d4dec <_ZNKSt14default_deleteIN6Thread4DataEEclEPS1_.isra.6>:
	       enable_if<is_convertible<_Up*, _Tp*>::value>::type>
        default_delete(const default_delete<_Up>&) noexcept { }

      /// Calls @c delete @p __ptr
      void
      operator()(_Tp* __ptr) const
   d4dec:	b538      	push	{r3, r4, r5, lr}
      {
	static_assert(!is_void<_Tp>::value,
		      "can't delete pointer to incomplete type");
	static_assert(sizeof(_Tp)>0,
		      "can't delete pointer to incomplete type");
	delete __ptr;
   d4dee:	4605      	mov	r5, r0
   d4df0:	b188      	cbz	r0, d4e16 <_ZNKSt14default_deleteIN6Thread4DataEEclEPS1_.isra.6+0x2a>

      /// Destructor, invokes the deleter if the stored pointer is not null.
      ~unique_ptr() noexcept
      {
	auto& __ptr = std::get<0>(_M_t);
	if (__ptr != nullptr)
   d4df2:	6804      	ldr	r4, [r0, #0]
   d4df4:	b14c      	cbz	r4, d4e0a <_ZNKSt14default_deleteIN6Thread4DataEEclEPS1_.isra.6+0x1e>

    ~_Function_base()
    {
      if (_M_manager)
   d4df6:	68a3      	ldr	r3, [r4, #8]
   d4df8:	b11b      	cbz	r3, d4e02 <_ZNKSt14default_deleteIN6Thread4DataEEclEPS1_.isra.6+0x16>
	_M_manager(_M_functor, _M_functor, __destroy_functor);
   d4dfa:	2203      	movs	r2, #3
   d4dfc:	4621      	mov	r1, r4
   d4dfe:	4620      	mov	r0, r4
   d4e00:	4798      	blx	r3
      {
	static_assert(!is_void<_Tp>::value,
		      "can't delete pointer to incomplete type");
	static_assert(sizeof(_Tp)>0,
		      "can't delete pointer to incomplete type");
	delete __ptr;
   d4e02:	2110      	movs	r1, #16
   d4e04:	4620      	mov	r0, r4
   d4e06:	f000 fa05 	bl	d5214 <_ZdlPvj>
   d4e0a:	4628      	mov	r0, r5
   d4e0c:	2114      	movs	r1, #20
      }
   d4e0e:	e8bd 4038 	ldmia.w	sp!, {r3, r4, r5, lr}
      {
	static_assert(!is_void<_Tp>::value,
		      "can't delete pointer to incomplete type");
	static_assert(sizeof(_Tp)>0,
		      "can't delete pointer to incomplete type");
	delete __ptr;
   d4e12:	f000 b9ff 	b.w	d5214 <_ZdlPvj>
   d4e16:	bd38      	pop	{r3, r4, r5, pc}

000d4e18 <_ZNKSt14default_deleteI3UDPEclEPS0_.isra.8.constprop.13>:
   d4e18:	b110      	cbz	r0, d4e20 <_ZNKSt14default_deleteI3UDPEclEPS0_.isra.8.constprop.13+0x8>
   d4e1a:	6803      	ldr	r3, [r0, #0]
   d4e1c:	685b      	ldr	r3, [r3, #4]
   d4e1e:	4718      	bx	r3
   d4e20:	4770      	bx	lr

000d4e22 <_ZN6ThreadD1Ev>:
    Thread(Thread&& thread)
        : d_(std::move(thread.d_))
    {
    }

    ~Thread()
   d4e22:	b510      	push	{r4, lr}
      }

      /// Return the stored pointer.
      pointer
      get() const noexcept
      { return std::get<0>(_M_t); }
   d4e24:	6803      	ldr	r3, [r0, #0]
   d4e26:	4604      	mov	r4, r0
        dispose();
    }

    void dispose()
    {
        if (!isValid())
   d4e28:	b1bb      	cbz	r3, d4e5a <_ZN6ThreadD1Ev+0x38>
        return isCurrent();
    }

    bool isCurrent() const
    {
        return isValid() && os_thread_is_current(d_->handle);
   d4e2a:	6858      	ldr	r0, [r3, #4]
   d4e2c:	f7ff fa0e 	bl	d424c <os_thread_is_current>
   d4e30:	b978      	cbnz	r0, d4e52 <_ZN6ThreadD1Ev+0x30>
   d4e32:	6823      	ldr	r3, [r4, #0]

        // We shouldn't dispose of current thread
        if (isCurrent())
            return;

        if (!d_->exited) {
   d4e34:	7c5a      	ldrb	r2, [r3, #17]
   d4e36:	b912      	cbnz	r2, d4e3e <_ZN6ThreadD1Ev+0x1c>
        d_.reset();
    }

    bool join()
    {
        return isValid() && os_thread_join(d_->handle)==0;
   d4e38:	6858      	ldr	r0, [r3, #4]
   d4e3a:	f7ff fa0f 	bl	d425c <os_thread_join>

        if (!d_->exited) {
            join();
        }

        os_thread_cleanup(d_->handle);
   d4e3e:	6823      	ldr	r3, [r4, #0]
   d4e40:	6858      	ldr	r0, [r3, #4]
   d4e42:	f7ff fa13 	bl	d426c <os_thread_cleanup>
#endif
    {
      // concept requirements
      __glibcxx_function_requires(_SGIAssignableConcept<_Tp>)

      _Tp __tmp = _GLIBCXX_MOVE(__a);
   d4e46:	6820      	ldr	r0, [r4, #0]
      __a = _GLIBCXX_MOVE(__b);
   d4e48:	2300      	movs	r3, #0
   d4e4a:	6023      	str	r3, [r4, #0]
      void
      reset(pointer __p = pointer()) noexcept
      {
	using std::swap;
	swap(std::get<0>(_M_t), __p);
	if (__p != pointer())
   d4e4c:	b128      	cbz	r0, d4e5a <_ZN6ThreadD1Ev+0x38>
	  get_deleter()(__p);
   d4e4e:	f7ff ffcd 	bl	d4dec <_ZNKSt14default_deleteIN6Thread4DataEEclEPS1_.isra.6>

      /// Destructor, invokes the deleter if the stored pointer is not null.
      ~unique_ptr() noexcept
      {
	auto& __ptr = std::get<0>(_M_t);
	if (__ptr != nullptr)
   d4e52:	6820      	ldr	r0, [r4, #0]
   d4e54:	b108      	cbz	r0, d4e5a <_ZN6ThreadD1Ev+0x38>
	  get_deleter()(__ptr);
   d4e56:	f7ff ffc9 	bl	d4dec <_ZNKSt14default_deleteIN6Thread4DataEEclEPS1_.isra.6>
    }

    ~Thread()
    {
        dispose();
    }
   d4e5a:	4620      	mov	r0, r4
   d4e5c:	bd10      	pop	{r4, pc}

000d4e5e <_ZN5spark11MeshPublishD1Ev>:
    virtual float getQualityValue() const {
        return 0.0f;
    }
};

class MeshPublish {
   d4e5e:	b538      	push	{r3, r4, r5, lr}
   d4e60:	4604      	mov	r4, r0

      /// Destructor, invokes the deleter if the stored pointer is not null.
      ~unique_ptr()
      {
	auto& __ptr = std::get<0>(_M_t);
	if (__ptr != nullptr)
   d4e62:	f8d0 01c4 	ldr.w	r0, [r0, #452]	; 0x1c4
   d4e66:	b108      	cbz	r0, d4e6c <_ZN5spark11MeshPublishD1Ev+0xe>
      void
      operator()(_Tp* __ptr) const
      {
	static_assert(sizeof(_Tp)>0,
		      "can't delete pointer to incomplete type");
	delete [] __ptr;
   d4e68:	f7ff f917 	bl	d409a <_ZdaPv>
        dispose();
    }

    void dispose()
    {
        if (handle_) {
   d4e6c:	f8d4 01c0 	ldr.w	r0, [r4, #448]	; 0x1c0
   d4e70:	b108      	cbz	r0, d4e76 <_ZN5spark11MeshPublishD1Ev+0x18>
            os_mutex_recursive_destroy(handle_);
   d4e72:	f7ff fa0b 	bl	d428c <os_mutex_recursive_destroy>

      /// Destructor, invokes the deleter if the stored pointer is not null.
      ~unique_ptr() noexcept
      {
	auto& __ptr = std::get<0>(_M_t);
	if (__ptr != nullptr)
   d4e76:	f8d4 51bc 	ldr.w	r5, [r4, #444]	; 0x1bc
   d4e7a:	b135      	cbz	r5, d4e8a <_ZN5spark11MeshPublishD1Ev+0x2c>
      {
	static_assert(!is_void<_Tp>::value,
		      "can't delete pointer to incomplete type");
	static_assert(sizeof(_Tp)>0,
		      "can't delete pointer to incomplete type");
	delete __ptr;
   d4e7c:	4628      	mov	r0, r5
   d4e7e:	f7ff ffd0 	bl	d4e22 <_ZN6ThreadD1Ev>
   d4e82:	2104      	movs	r1, #4
   d4e84:	4628      	mov	r0, r5
   d4e86:	f000 f9c5 	bl	d5214 <_ZdlPvj>

      /// Destructor, invokes the deleter if the stored pointer is not null.
      ~unique_ptr() noexcept
      {
	auto& __ptr = std::get<0>(_M_t);
	if (__ptr != nullptr)
   d4e8a:	6820      	ldr	r0, [r4, #0]
   d4e8c:	b108      	cbz	r0, d4e92 <_ZN5spark11MeshPublishD1Ev+0x34>
	  get_deleter()(__ptr);
   d4e8e:	f7ff ffc3 	bl	d4e18 <_ZNKSt14default_deleteI3UDPEclEPS0_.isra.8.constprop.13>
   d4e92:	4620      	mov	r0, r4
   d4e94:	bd38      	pop	{r3, r4, r5, pc}
	...

000d4e98 <_ZN5spark9MeshClassD1Ev>:
    RecursiveMutex mutex_;
    std::unique_ptr<uint8_t[]> buffer_;
    std::atomic_bool exit_;
};

class MeshClass : public NetworkClass, public MeshPublish {
   d4e98:	b510      	push	{r4, lr}
   d4e9a:	4b04      	ldr	r3, [pc, #16]	; (d4eac <_ZN5spark9MeshClassD1Ev+0x14>)
   d4e9c:	4604      	mov	r4, r0
   d4e9e:	f840 3b08 	str.w	r3, [r0], #8
   d4ea2:	f7ff ffdc 	bl	d4e5e <_ZN5spark11MeshPublishD1Ev>
   d4ea6:	4620      	mov	r0, r4
   d4ea8:	bd10      	pop	{r4, pc}
   d4eaa:	bf00      	nop
   d4eac:	000d60f0 	.word	0x000d60f0

000d4eb0 <_GLOBAL__sub_I__ZN5spark11MeshPublish13Subscriptions20event_handler_existsEPKcPFvS3_S3_EPvN17SubscriptionScope4EnumES3_>:

    return addr;
}

MeshClass Mesh;
} // namespace spark
   d4eb0:	b538      	push	{r3, r4, r5, lr}
   d4eb2:	4c0e      	ldr	r4, [pc, #56]	; (d4eec <_GLOBAL__sub_I__ZN5spark11MeshPublish13Subscriptions20event_handler_existsEPKcPFvS3_S3_EPvN17SubscriptionScope4EnumES3_+0x3c>)
   d4eb4:	4b0e      	ldr	r3, [pc, #56]	; (d4ef0 <_GLOBAL__sub_I__ZN5spark11MeshPublish13Subscriptions20event_handler_existsEPKcPFvS3_S3_EPvN17SubscriptionScope4EnumES3_+0x40>)
   d4eb6:	6023      	str	r3, [r4, #0]

  template<std::size_t _Idx, typename _Head>
    struct _Head_base<_Idx, _Head, false>
    {
      constexpr _Head_base()
      : _M_head_impl() { }
   d4eb8:	2500      	movs	r5, #0
   d4eba:	2302      	movs	r3, #2
     */
    RecursiveMutex(os_mutex_recursive_t handle) : handle_(handle) {}

    RecursiveMutex() : handle_(nullptr)
    {
        os_mutex_recursive_create(&handle_);
   d4ebc:	f504 70e4 	add.w	r0, r4, #456	; 0x1c8
   d4ec0:	6063      	str	r3, [r4, #4]
   d4ec2:	60a5      	str	r5, [r4, #8]
   d4ec4:	f8c4 51c4 	str.w	r5, [r4, #452]	; 0x1c4
    /**
     * Creates a shared mutex.
     */
    RecursiveMutex(os_mutex_recursive_t handle) : handle_(handle) {}

    RecursiveMutex() : handle_(nullptr)
   d4ec8:	f8c4 51c8 	str.w	r5, [r4, #456]	; 0x1c8
    {
        os_mutex_recursive_create(&handle_);
   d4ecc:	f7ff f9d6 	bl	d427c <os_mutex_recursive_create>
public:
    MeshClass() :
            NetworkClass(NETWORK_INTERFACE_MESH) {
   d4ed0:	4b08      	ldr	r3, [pc, #32]	; (d4ef4 <_GLOBAL__sub_I__ZN5spark11MeshPublish13Subscriptions20event_handler_existsEPKcPFvS3_S3_EPvN17SubscriptionScope4EnumES3_+0x44>)
   d4ed2:	f8c4 51cc 	str.w	r5, [r4, #460]	; 0x1cc
      __atomic_base(const __atomic_base&) = delete;
      __atomic_base& operator=(const __atomic_base&) = delete;
      __atomic_base& operator=(const __atomic_base&) volatile = delete;

      // Requires __int_type convertible to _M_i.
      constexpr __atomic_base(__int_type __i) noexcept : _M_i (__i) { }
   d4ed6:	f884 51d0 	strb.w	r5, [r4, #464]	; 0x1d0
   d4eda:	6023      	str	r3, [r4, #0]
    }

    return addr;
}

MeshClass Mesh;
   d4edc:	4620      	mov	r0, r4
   d4ede:	4a06      	ldr	r2, [pc, #24]	; (d4ef8 <_GLOBAL__sub_I__ZN5spark11MeshPublish13Subscriptions20event_handler_existsEPKcPFvS3_S3_EPvN17SubscriptionScope4EnumES3_+0x48>)
   d4ee0:	4906      	ldr	r1, [pc, #24]	; (d4efc <_GLOBAL__sub_I__ZN5spark11MeshPublish13Subscriptions20event_handler_existsEPKcPFvS3_S3_EPvN17SubscriptionScope4EnumES3_+0x4c>)
} // namespace spark
   d4ee2:	e8bd 4038 	ldmia.w	sp!, {r3, r4, r5, lr}
    }

    return addr;
}

MeshClass Mesh;
   d4ee6:	f000 b987 	b.w	d51f8 <__aeabi_atexit>
   d4eea:	bf00      	nop
   d4eec:	2003e540 	.word	0x2003e540
   d4ef0:	000d6158 	.word	0x000d6158
   d4ef4:	000d60f0 	.word	0x000d60f0
   d4ef8:	2003e3cc 	.word	0x2003e3cc
   d4efc:	000d4e99 	.word	0x000d4e99

000d4f00 <_ZN5spark9WiFiClass5readyEv>:
    bool connecting(void) {
        return network_connecting(*this, 0, NULL);
    }

    bool ready(void) {
        return network_ready(*this, 0, NULL);
   d4f00:	2200      	movs	r2, #0
   d4f02:	4611      	mov	r1, r2
   d4f04:	6840      	ldr	r0, [r0, #4]
   d4f06:	f7ff bab5 	b.w	d4474 <network_ready>

000d4f0a <_ZN5spark9WiFiClass9listeningEv>:
    uint16_t getListenTimeout(void) {
        return network_get_listen_timeout(*this, 0, NULL);
    }

    bool listening(void) {
        return network_listening(*this, 0, NULL);
   d4f0a:	2200      	movs	r2, #0
   d4f0c:	4611      	mov	r1, r2
   d4f0e:	6840      	ldr	r0, [r0, #4]
   d4f10:	f7ff bad0 	b.w	d44b4 <network_listening>

000d4f14 <_ZN5spark9WiFiClass16getListenTimeoutEv>:
        network_set_listen_timeout(*this, timeout, NULL);
    }
    inline void setListenTimeout(std::chrono::seconds s) { setListenTimeout(s.count()); }

    uint16_t getListenTimeout(void) {
        return network_get_listen_timeout(*this, 0, NULL);
   d4f14:	2200      	movs	r2, #0
   d4f16:	4611      	mov	r1, r2
   d4f18:	6840      	ldr	r0, [r0, #4]
   d4f1a:	f7ff badb 	b.w	d44d4 <network_get_listen_timeout>

000d4f1e <_ZN5spark9WiFiClass16setListenTimeoutEt>:
    void listen(bool begin=true) {
        network_listen(*this, begin ? 0 : 1, NULL);
    }

    void setListenTimeout(uint16_t timeout) {
        network_set_listen_timeout(*this, timeout, NULL);
   d4f1e:	2200      	movs	r2, #0
   d4f20:	6840      	ldr	r0, [r0, #4]
   d4f22:	f7ff bacf 	b.w	d44c4 <network_set_listen_timeout>

000d4f26 <_ZN5spark9WiFiClass6listenEb>:
    void off(void) {
        network_off(*this, 0, 0, NULL);
    }

    void listen(bool begin=true) {
        network_listen(*this, begin ? 0 : 1, NULL);
   d4f26:	2200      	movs	r2, #0
   d4f28:	f081 0101 	eor.w	r1, r1, #1
   d4f2c:	6840      	ldr	r0, [r0, #4]
   d4f2e:	f7ff bab9 	b.w	d44a4 <network_listen>

000d4f32 <_ZN5spark9WiFiClass3offEv>:
    void on(void) {
        network_on(*this, 0, 0, NULL);
    }

    void off(void) {
        network_off(*this, 0, 0, NULL);
   d4f32:	2300      	movs	r3, #0
   d4f34:	461a      	mov	r2, r3
   d4f36:	4619      	mov	r1, r3
   d4f38:	6840      	ldr	r0, [r0, #4]
   d4f3a:	f7ff baab 	b.w	d4494 <network_off>

000d4f3e <_ZN5spark9WiFiClass2onEv>:
    bool ready(void) {
        return network_ready(*this, 0, NULL);
    }

    void on(void) {
        network_on(*this, 0, 0, NULL);
   d4f3e:	2300      	movs	r3, #0
   d4f40:	461a      	mov	r2, r3
   d4f42:	4619      	mov	r1, r3
   d4f44:	6840      	ldr	r0, [r0, #4]
   d4f46:	f7ff ba9d 	b.w	d4484 <network_on>

000d4f4a <_ZN5spark9WiFiClass10connectingEv>:
    void disconnect(void) {
        network_disconnect(*this, NETWORK_DISCONNECT_REASON_USER, NULL);
    }

    bool connecting(void) {
        return network_connecting(*this, 0, NULL);
   d4f4a:	2200      	movs	r2, #0
   d4f4c:	4611      	mov	r1, r2
   d4f4e:	6840      	ldr	r0, [r0, #4]
   d4f50:	f7ff ba80 	b.w	d4454 <network_connecting>

000d4f54 <_ZN5spark9WiFiClass10disconnectEv>:
    void connect(unsigned flags=0) {
        network_connect(*this, flags, 0, NULL);
    }

    void disconnect(void) {
        network_disconnect(*this, NETWORK_DISCONNECT_REASON_USER, NULL);
   d4f54:	2200      	movs	r2, #0
   d4f56:	2102      	movs	r1, #2
   d4f58:	6840      	ldr	r0, [r0, #4]
   d4f5a:	f7ff ba83 	b.w	d4464 <network_disconnect>

000d4f5e <_ZN5spark9WiFiClass7connectEj>:
    uint32_t ping(IPAddress remoteIP, uint8_t nTries) {
        return inet_ping(&remoteIP.raw(), *this, nTries, NULL);
    }

    void connect(unsigned flags=0) {
        network_connect(*this, flags, 0, NULL);
   d4f5e:	2300      	movs	r3, #0
   d4f60:	461a      	mov	r2, r3
   d4f62:	6840      	ldr	r0, [r0, #4]
   d4f64:	f7ff ba6e 	b.w	d4444 <network_connect>

000d4f68 <_GLOBAL__sub_I__ZN10WiFiSignalC2ERK21wlan_connected_info_t>:
   d4f68:	4b02      	ldr	r3, [pc, #8]	; (d4f74 <_GLOBAL__sub_I__ZN10WiFiSignalC2ERK21wlan_connected_info_t+0xc>)
   d4f6a:	2204      	movs	r2, #4
   d4f6c:	605a      	str	r2, [r3, #4]
        wlan_set_ipaddress_source(source, true, NULL);
    }

public:
    WiFiClass() :
            NetworkClass(NETWORK_INTERFACE_WIFI_STA) {
   d4f6e:	4a02      	ldr	r2, [pc, #8]	; (d4f78 <_GLOBAL__sub_I__ZN10WiFiSignalC2ERK21wlan_connected_info_t+0x10>)
   d4f70:	601a      	str	r2, [r3, #0]
   d4f72:	4770      	bx	lr
   d4f74:	2003e714 	.word	0x2003e714
   d4f78:	000d6124 	.word	0x000d6124

000d4f7c <_ZN5spark12NetworkClass7connectEj>:
        return Network;
    }
}

void NetworkClass::connect(unsigned flags) {
    network_connect(*this, flags, 0, nullptr);
   d4f7c:	2300      	movs	r3, #0
   d4f7e:	461a      	mov	r2, r3
   d4f80:	6840      	ldr	r0, [r0, #4]
   d4f82:	f7ff ba5f 	b.w	d4444 <network_connect>

000d4f86 <_ZN5spark12NetworkClass10disconnectEv>:
}

void NetworkClass::disconnect() {
    network_disconnect(*this, NETWORK_DISCONNECT_REASON_USER, nullptr);
   d4f86:	2200      	movs	r2, #0
   d4f88:	2102      	movs	r1, #2
   d4f8a:	6840      	ldr	r0, [r0, #4]
   d4f8c:	f7ff ba6a 	b.w	d4464 <network_disconnect>

000d4f90 <_ZN5spark12NetworkClass10connectingEv>:
}

bool NetworkClass::connecting() {
    return network_connecting(*this, 0, nullptr);
   d4f90:	2200      	movs	r2, #0
   d4f92:	4611      	mov	r1, r2
   d4f94:	6840      	ldr	r0, [r0, #4]
   d4f96:	f7ff ba5d 	b.w	d4454 <network_connecting>

000d4f9a <_ZN5spark12NetworkClass5readyEv>:
}

bool NetworkClass::ready() {
    return network_ready(*this, 0, nullptr);
   d4f9a:	2200      	movs	r2, #0
   d4f9c:	4611      	mov	r1, r2
   d4f9e:	6840      	ldr	r0, [r0, #4]
   d4fa0:	f7ff ba68 	b.w	d4474 <network_ready>

000d4fa4 <_ZN5spark12NetworkClass2onEv>:
}

void NetworkClass::on() {
    network_on(*this, 0, 0, nullptr);
   d4fa4:	2300      	movs	r3, #0
   d4fa6:	461a      	mov	r2, r3
   d4fa8:	4619      	mov	r1, r3
   d4faa:	6840      	ldr	r0, [r0, #4]
   d4fac:	f7ff ba6a 	b.w	d4484 <network_on>

000d4fb0 <_ZN5spark12NetworkClass3offEv>:
}

void NetworkClass::off() {
    network_off(*this, 0, 0, nullptr);
   d4fb0:	2300      	movs	r3, #0
   d4fb2:	461a      	mov	r2, r3
   d4fb4:	4619      	mov	r1, r3
   d4fb6:	6840      	ldr	r0, [r0, #4]
   d4fb8:	f7ff ba6c 	b.w	d4494 <network_off>

000d4fbc <_ZN5spark12NetworkClass6listenEb>:
}

void NetworkClass::listen(bool begin) {
    network_listen(*this, begin ? 0 : 1, nullptr);
   d4fbc:	2200      	movs	r2, #0
   d4fbe:	f081 0101 	eor.w	r1, r1, #1
   d4fc2:	6840      	ldr	r0, [r0, #4]
   d4fc4:	f7ff ba6e 	b.w	d44a4 <network_listen>

000d4fc8 <_ZN5spark12NetworkClass16setListenTimeoutEt>:
}

void NetworkClass::setListenTimeout(uint16_t timeout) {
    network_set_listen_timeout(*this, timeout, nullptr);
   d4fc8:	2200      	movs	r2, #0
   d4fca:	6840      	ldr	r0, [r0, #4]
   d4fcc:	f7ff ba7a 	b.w	d44c4 <network_set_listen_timeout>

000d4fd0 <_ZN5spark12NetworkClass16getListenTimeoutEv>:
}

uint16_t NetworkClass::getListenTimeout() {
    return network_get_listen_timeout(*this, 0, nullptr);
   d4fd0:	2200      	movs	r2, #0
   d4fd2:	4611      	mov	r1, r2
   d4fd4:	6840      	ldr	r0, [r0, #4]
   d4fd6:	f7ff ba7d 	b.w	d44d4 <network_get_listen_timeout>

000d4fda <_ZN5spark12NetworkClass9listeningEv>:
}

bool NetworkClass::listening() {
    return network_listening(*this, 0, nullptr);
   d4fda:	2200      	movs	r2, #0
   d4fdc:	4611      	mov	r1, r2
   d4fde:	6840      	ldr	r0, [r0, #4]
   d4fe0:	f7ff ba68 	b.w	d44b4 <network_listening>

000d4fe4 <_ZN5spark12NetworkClass7resolveEPKc>:
}

IPAddress NetworkClass::resolve(const char* name) {
   d4fe4:	e92d 43f0 	stmdb	sp!, {r4, r5, r6, r7, r8, r9, lr}
    IPAddress addr;
#if HAL_USE_INET_HAL_POSIX
    struct addrinfo *ai = nullptr;
   d4fe8:	2400      	movs	r4, #0

bool NetworkClass::listening() {
    return network_listening(*this, 0, nullptr);
}

IPAddress NetworkClass::resolve(const char* name) {
   d4fea:	b095      	sub	sp, #84	; 0x54
   d4fec:	4616      	mov	r6, r2
   d4fee:	460d      	mov	r5, r1
   d4ff0:	4607      	mov	r7, r0
    IPAddress addr;
   d4ff2:	f7ff fd43 	bl	d4a7c <_ZN9IPAddressC1Ev>
#if HAL_USE_INET_HAL_POSIX
    struct addrinfo *ai = nullptr;
    struct addrinfo hints = {};
   d4ff6:	4621      	mov	r1, r4
   d4ff8:	2220      	movs	r2, #32
   d4ffa:	a80c      	add	r0, sp, #48	; 0x30
}

IPAddress NetworkClass::resolve(const char* name) {
    IPAddress addr;
#if HAL_USE_INET_HAL_POSIX
    struct addrinfo *ai = nullptr;
   d4ffc:	9400      	str	r4, [sp, #0]
    struct addrinfo hints = {};
   d4ffe:	f000 ff2e 	bl	d5e5e <memset>
    hints.ai_flags = AI_ADDRCONFIG;
   d5002:	2340      	movs	r3, #64	; 0x40
   d5004:	930c      	str	r3, [sp, #48]	; 0x30
    hints.ai_family = AF_UNSPEC;
    const int r = getaddrinfo(name, nullptr, &hints, &ai);
   d5006:	4621      	mov	r1, r4
   d5008:	466b      	mov	r3, sp
   d500a:	aa0c      	add	r2, sp, #48	; 0x30
   d500c:	4630      	mov	r0, r6
   d500e:	f7ff f8d5 	bl	d41bc <netdb_getaddrinfo>
    if (!r) {
   d5012:	4604      	mov	r4, r0
   d5014:	2800      	cmp	r0, #0
   d5016:	d144      	bne.n	d50a2 <_ZN5spark12NetworkClass7resolveEPKc+0xbe>
        bool ok = false;
        // This is not really needed if AI_ADDRCONFIG is properly supported
        bool ipv4 = network_ready(*this, NETWORK_READY_TYPE_IPV4, nullptr);
   d5018:	4602      	mov	r2, r0
   d501a:	2101      	movs	r1, #1
   d501c:	6868      	ldr	r0, [r5, #4]
   d501e:	f7ff fa29 	bl	d4474 <network_ready>
        bool ipv6 = network_ready(*this, NETWORK_READY_TYPE_IPV6, nullptr);
   d5022:	2102      	movs	r1, #2
    hints.ai_family = AF_UNSPEC;
    const int r = getaddrinfo(name, nullptr, &hints, &ai);
    if (!r) {
        bool ok = false;
        // This is not really needed if AI_ADDRCONFIG is properly supported
        bool ipv4 = network_ready(*this, NETWORK_READY_TYPE_IPV4, nullptr);
   d5024:	4680      	mov	r8, r0
        bool ipv6 = network_ready(*this, NETWORK_READY_TYPE_IPV6, nullptr);
   d5026:	4622      	mov	r2, r4
   d5028:	6868      	ldr	r0, [r5, #4]
   d502a:	f7ff fa23 	bl	d4474 <network_ready>
        for (auto cur = ai; cur != nullptr && !ok; cur = cur->ai_next) {
   d502e:	9e00      	ldr	r6, [sp, #0]
    const int r = getaddrinfo(name, nullptr, &hints, &ai);
    if (!r) {
        bool ok = false;
        // This is not really needed if AI_ADDRCONFIG is properly supported
        bool ipv4 = network_ready(*this, NETWORK_READY_TYPE_IPV4, nullptr);
        bool ipv6 = network_ready(*this, NETWORK_READY_TYPE_IPV6, nullptr);
   d5030:	4681      	mov	r9, r0
    struct addrinfo hints = {};
    hints.ai_flags = AI_ADDRCONFIG;
    hints.ai_family = AF_UNSPEC;
    const int r = getaddrinfo(name, nullptr, &hints, &ai);
    if (!r) {
        bool ok = false;
   d5032:	4621      	mov	r1, r4
        // This is not really needed if AI_ADDRCONFIG is properly supported
        bool ipv4 = network_ready(*this, NETWORK_READY_TYPE_IPV4, nullptr);
        bool ipv6 = network_ready(*this, NETWORK_READY_TYPE_IPV6, nullptr);
        for (auto cur = ai; cur != nullptr && !ok; cur = cur->ai_next) {
   d5034:	2e00      	cmp	r6, #0
   d5036:	d034      	beq.n	d50a2 <_ZN5spark12NetworkClass7resolveEPKc+0xbe>
   d5038:	2900      	cmp	r1, #0
   d503a:	d132      	bne.n	d50a2 <_ZN5spark12NetworkClass7resolveEPKc+0xbe>
            // NOTE: using only the first entry that matches the current state of IPv4/IPv6 connectivity
            switch (cur->ai_family) {
   d503c:	6873      	ldr	r3, [r6, #4]
   d503e:	2b02      	cmp	r3, #2
   d5040:	d002      	beq.n	d5048 <_ZN5spark12NetworkClass7resolveEPKc+0x64>
   d5042:	2b0a      	cmp	r3, #10
   d5044:	d009      	beq.n	d505a <_ZN5spark12NetworkClass7resolveEPKc+0x76>
   d5046:	e02a      	b.n	d509e <_ZN5spark12NetworkClass7resolveEPKc+0xba>
                case AF_INET: {
                    if (!ipv4) {
   d5048:	f1b8 0f00 	cmp.w	r8, #0
   d504c:	d027      	beq.n	d509e <_ZN5spark12NetworkClass7resolveEPKc+0xba>
                        continue;
                    }
                    // NOTE: HAL_IPAddress is little-endian
                    auto in = (struct sockaddr_in*)cur->ai_addr;
                    addr = (const uint8_t*)(&in->sin_addr.s_addr);
   d504e:	6971      	ldr	r1, [r6, #20]
   d5050:	4638      	mov	r0, r7
   d5052:	3104      	adds	r1, #4
   d5054:	f7ff fd3f 	bl	d4ad6 <_ZN9IPAddressaSEPKh>
   d5058:	e020      	b.n	d509c <_ZN5spark12NetworkClass7resolveEPKc+0xb8>
                    ok = true;
                    break;
                }
                case AF_INET6: {
                    if (!ipv6) {
   d505a:	f1b9 0f00 	cmp.w	r9, #0
   d505e:	d01e      	beq.n	d509e <_ZN5spark12NetworkClass7resolveEPKc+0xba>
                        continue;
                    }
                    auto in6 = (struct sockaddr_in6*)cur->ai_addr;
   d5060:	6974      	ldr	r4, [r6, #20]
                    HAL_IPAddress a = {};
   d5062:	2211      	movs	r2, #17
   d5064:	a801      	add	r0, sp, #4
   d5066:	f000 fefa 	bl	d5e5e <memset>
                    a.v = 6;
   d506a:	2306      	movs	r3, #6
   d506c:	f88d 3014 	strb.w	r3, [sp, #20]
                    memcpy(a.ipv6, in6->sin6_addr.s6_addr, sizeof(a.ipv6));
   d5070:	ad01      	add	r5, sp, #4
   d5072:	f104 0308 	add.w	r3, r4, #8
   d5076:	3418      	adds	r4, #24
   d5078:	6818      	ldr	r0, [r3, #0]
   d507a:	6859      	ldr	r1, [r3, #4]
   d507c:	462a      	mov	r2, r5
   d507e:	c203      	stmia	r2!, {r0, r1}
   d5080:	3308      	adds	r3, #8
   d5082:	42a3      	cmp	r3, r4
   d5084:	4615      	mov	r5, r2
   d5086:	d1f7      	bne.n	d5078 <_ZN5spark12NetworkClass7resolveEPKc+0x94>
                    addr = IPAddress(a);
   d5088:	a901      	add	r1, sp, #4
   d508a:	a806      	add	r0, sp, #24

/**
 * The IP address stored in host order.
 *
 */
class IPAddress : public Printable {
   d508c:	ad07      	add	r5, sp, #28
   d508e:	f7ff fd03 	bl	d4a98 <_ZN9IPAddressC1ERK16_HAL_IPAddress_t>
   d5092:	cd0f      	ldmia	r5!, {r0, r1, r2, r3}
   d5094:	1d3c      	adds	r4, r7, #4
   d5096:	c40f      	stmia	r4!, {r0, r1, r2, r3}
   d5098:	682b      	ldr	r3, [r5, #0]
   d509a:	7023      	strb	r3, [r4, #0]
                    ok = true;
   d509c:	2101      	movs	r1, #1
    if (!r) {
        bool ok = false;
        // This is not really needed if AI_ADDRCONFIG is properly supported
        bool ipv4 = network_ready(*this, NETWORK_READY_TYPE_IPV4, nullptr);
        bool ipv6 = network_ready(*this, NETWORK_READY_TYPE_IPV6, nullptr);
        for (auto cur = ai; cur != nullptr && !ok; cur = cur->ai_next) {
   d509e:	69f6      	ldr	r6, [r6, #28]
   d50a0:	e7c8      	b.n	d5034 <_ZN5spark12NetworkClass7resolveEPKc+0x50>
                    break;
                }
            }
        }
    }
    freeaddrinfo(ai);
   d50a2:	9800      	ldr	r0, [sp, #0]
   d50a4:	f7ff f882 	bl	d41ac <netdb_freeaddrinfo>
    return Cellular.resolve(name);
#endif // Wiring_Cellular

#endif // HAL_USE_INET_HAL_POSIX
    return addr;
}
   d50a8:	4638      	mov	r0, r7
   d50aa:	b015      	add	sp, #84	; 0x54
   d50ac:	e8bd 83f0 	ldmia.w	sp!, {r4, r5, r6, r7, r8, r9, pc}

000d50b0 <_GLOBAL__sub_I__ZN5spark7NetworkE>:
   d50b0:	4b02      	ldr	r3, [pc, #8]	; (d50bc <_GLOBAL__sub_I__ZN5spark7NetworkE+0xc>)
   d50b2:	4a03      	ldr	r2, [pc, #12]	; (d50c0 <_GLOBAL__sub_I__ZN5spark7NetworkE+0x10>)
   d50b4:	601a      	str	r2, [r3, #0]
   d50b6:	2200      	movs	r2, #0
   d50b8:	605a      	str	r2, [r3, #4]
   d50ba:	4770      	bx	lr
   d50bc:	2003e71c 	.word	0x2003e71c
   d50c0:	000d6158 	.word	0x000d6158

000d50c4 <pinAvailable>:

/*
 * @brief Perform safety check on desired pin to see if it's already
 * being used.  Return 0 if used, otherwise return 1 if available.
 */
bool pinAvailable(uint16_t pin) {
   d50c4:	b570      	push	{r4, r5, r6, lr}

template <HAL_SPI_Interface Interface>
class SpiProxy {
public:
    static SPIClass& instance() {
        static SPIClass instance(Interface);
   d50c6:	4e18      	ldr	r6, [pc, #96]	; (d5128 <pinAvailable+0x64>)
   d50c8:	6831      	ldr	r1, [r6, #0]
   d50ca:	f011 0501 	ands.w	r5, r1, #1
   d50ce:	4604      	mov	r4, r0
   d50d0:	d10a      	bne.n	d50e8 <pinAvailable+0x24>
   d50d2:	4630      	mov	r0, r6
   d50d4:	f7fe ffe3 	bl	d409e <__cxa_guard_acquire>
   d50d8:	b130      	cbz	r0, d50e8 <pinAvailable+0x24>
   d50da:	4629      	mov	r1, r5
   d50dc:	4813      	ldr	r0, [pc, #76]	; (d512c <pinAvailable+0x68>)
   d50de:	f7ff fa57 	bl	d4590 <_ZN8SPIClassC1E17HAL_SPI_Interface>
   d50e2:	4630      	mov	r0, r6
   d50e4:	f7fe ffe0 	bl	d40a8 <__cxa_guard_release>
    }
    void detachInterrupt() {
        instance().detachInterrupt();
    }
    bool isEnabled(void) {
        return instance().isEnabled();
   d50e8:	4810      	ldr	r0, [pc, #64]	; (d512c <pinAvailable+0x68>)
   d50ea:	f7ff fa5b 	bl	d45a4 <_ZN8SPIClass9isEnabledEv>

  // SPI safety check
#ifndef SPARK_WIRING_NO_SPI
  if(SPI.isEnabled() == true && (pin == SCK || pin == MOSI || pin == MISO))
   d50ee:	b128      	cbz	r0, d50fc <pinAvailable+0x38>
   d50f0:	f1a4 030b 	sub.w	r3, r4, #11
   d50f4:	2b02      	cmp	r3, #2
   d50f6:	d801      	bhi.n	d50fc <pinAvailable+0x38>
  {
    return 0; // 'pin' is used
   d50f8:	2000      	movs	r0, #0
   d50fa:	bd70      	pop	{r4, r5, r6, pc}
  }
#endif
  // I2C safety check
#ifndef SPARK_WIRING_NO_I2C
  if(Wire.isEnabled() == true && (pin == SCL || pin == SDA))
   d50fc:	f000 f856 	bl	d51ac <_Z19__fetch_global_Wirev>
   d5100:	f7ff fe3c 	bl	d4d7c <_ZN7TwoWire9isEnabledEv>
   d5104:	b108      	cbz	r0, d510a <pinAvailable+0x46>
   d5106:	2c01      	cmp	r4, #1
   d5108:	d9f6      	bls.n	d50f8 <pinAvailable+0x34>
    return 0; // 'pin' is used
  }
#endif
#ifndef SPARK_WIRING_NO_USART_SERIAL
  // Serial1 safety check
  if(Serial1.isEnabled() == true && (pin == RX || pin == TX))
   d510a:	f7ff fdd3 	bl	d4cb4 <_Z22__fetch_global_Serial1v>
   d510e:	f7ff fdcd 	bl	d4cac <_ZN11USARTSerial9isEnabledEv>
   d5112:	b118      	cbz	r0, d511c <pinAvailable+0x58>
   d5114:	f1a4 0309 	sub.w	r3, r4, #9
   d5118:	2b01      	cmp	r3, #1
   d511a:	d9ed      	bls.n	d50f8 <pinAvailable+0x34>
  {
    return 0; // 'pin' is used
  }
#endif

  if (pin >= TOTAL_PINS)
   d511c:	2c23      	cmp	r4, #35	; 0x23
   d511e:	bf8c      	ite	hi
   d5120:	2000      	movhi	r0, #0
   d5122:	2001      	movls	r0, #1
    return 0;
  else
    return 1; // 'pin' is available
}
   d5124:	bd70      	pop	{r4, r5, r6, pc}
   d5126:	bf00      	nop
   d5128:	2003e724 	.word	0x2003e724
   d512c:	2003e728 	.word	0x2003e728

000d5130 <pinMode>:
 * or INPUT_PULLDOWN
 */
void pinMode(uint16_t pin, PinMode setMode)
{

  if(pin >= TOTAL_PINS || setMode == PIN_MODE_NONE )
   d5130:	2823      	cmp	r0, #35	; 0x23
/*
 * @brief Set the mode of the pin to OUTPUT, INPUT, INPUT_PULLUP,
 * or INPUT_PULLDOWN
 */
void pinMode(uint16_t pin, PinMode setMode)
{
   d5132:	b538      	push	{r3, r4, r5, lr}
   d5134:	4604      	mov	r4, r0
   d5136:	460d      	mov	r5, r1

  if(pin >= TOTAL_PINS || setMode == PIN_MODE_NONE )
   d5138:	d80a      	bhi.n	d5150 <pinMode+0x20>
   d513a:	29ff      	cmp	r1, #255	; 0xff
   d513c:	d008      	beq.n	d5150 <pinMode+0x20>
  {
    return;
  }

  // Safety check
  if( !pinAvailable(pin) ) {
   d513e:	f7ff ffc1 	bl	d50c4 <pinAvailable>
   d5142:	b128      	cbz	r0, d5150 <pinMode+0x20>
    return;
  }

  HAL_Pin_Mode(pin, setMode);
   d5144:	4629      	mov	r1, r5
   d5146:	4620      	mov	r0, r4
}
   d5148:	e8bd 4038 	ldmia.w	sp!, {r3, r4, r5, lr}
  // Safety check
  if( !pinAvailable(pin) ) {
    return;
  }

  HAL_Pin_Mode(pin, setMode);
   d514c:	f7ff b846 	b.w	d41dc <HAL_Pin_Mode>
   d5150:	bd38      	pop	{r3, r4, r5, pc}

000d5152 <digitalRead>:

/*
 * @brief Reads the value of a GPIO pin. Should return either 1 (HIGH) or 0 (LOW).
 */
int32_t digitalRead(pin_t pin)
{
   d5152:	b510      	push	{r4, lr}
   d5154:	4604      	mov	r4, r0
    PinMode mode = HAL_Get_Pin_Mode(pin);
   d5156:	f7ff f849 	bl	d41ec <HAL_Get_Pin_Mode>
    if (is_af_output_mode(mode))
   d515a:	3804      	subs	r0, #4
   d515c:	b2c0      	uxtb	r0, r0
   d515e:	2801      	cmp	r0, #1
   d5160:	d908      	bls.n	d5174 <digitalRead+0x22>
        return LOW;

    // Safety check
    if( !pinAvailable(pin) ) {
   d5162:	4620      	mov	r0, r4
   d5164:	f7ff ffae 	bl	d50c4 <pinAvailable>
   d5168:	b120      	cbz	r0, d5174 <digitalRead+0x22>
      return LOW;
    }

    return HAL_GPIO_Read(pin);
   d516a:	4620      	mov	r0, r4
}
   d516c:	e8bd 4010 	ldmia.w	sp!, {r4, lr}
    // Safety check
    if( !pinAvailable(pin) ) {
      return LOW;
    }

    return HAL_GPIO_Read(pin);
   d5170:	f7ff b844 	b.w	d41fc <HAL_GPIO_Read>
}
   d5174:	2000      	movs	r0, #0
   d5176:	bd10      	pop	{r4, pc}

000d5178 <_Z17acquireWireBufferv>:
   d5178:	b570      	push	{r4, r5, r6, lr}
   d517a:	4604      	mov	r4, r0
   d517c:	2514      	movs	r5, #20
   d517e:	462a      	mov	r2, r5
   d5180:	4e09      	ldr	r6, [pc, #36]	; (d51a8 <_Z17acquireWireBufferv+0x30>)
   d5182:	2100      	movs	r1, #0
   d5184:	f000 fe6b 	bl	d5e5e <memset>
   d5188:	8025      	strh	r5, [r4, #0]
   d518a:	2520      	movs	r5, #32
   d518c:	4631      	mov	r1, r6
   d518e:	60a5      	str	r5, [r4, #8]
   d5190:	6125      	str	r5, [r4, #16]
   d5192:	4628      	mov	r0, r5
   d5194:	f000 f840 	bl	d5218 <_ZnajRKSt9nothrow_t>
   d5198:	4631      	mov	r1, r6
   d519a:	6060      	str	r0, [r4, #4]
   d519c:	4628      	mov	r0, r5
   d519e:	f000 f83b 	bl	d5218 <_ZnajRKSt9nothrow_t>
   d51a2:	60e0      	str	r0, [r4, #12]
   d51a4:	4620      	mov	r0, r4
   d51a6:	bd70      	pop	{r4, r5, r6, pc}
   d51a8:	000d6184 	.word	0x000d6184

000d51ac <_Z19__fetch_global_Wirev>:
	return defaultWireConfig();
}
#endif

TwoWire& __fetch_global_Wire()
{
   d51ac:	b530      	push	{r4, r5, lr}
	static TwoWire wire(HAL_I2C_INTERFACE1, acquireWireBuffer());
   d51ae:	4d0e      	ldr	r5, [pc, #56]	; (d51e8 <_Z19__fetch_global_Wirev+0x3c>)
   d51b0:	6829      	ldr	r1, [r5, #0]
   d51b2:	f011 0401 	ands.w	r4, r1, #1
	return defaultWireConfig();
}
#endif

TwoWire& __fetch_global_Wire()
{
   d51b6:	b087      	sub	sp, #28
	static TwoWire wire(HAL_I2C_INTERFACE1, acquireWireBuffer());
   d51b8:	d113      	bne.n	d51e2 <_Z19__fetch_global_Wirev+0x36>
   d51ba:	4628      	mov	r0, r5
   d51bc:	f7fe ff6f 	bl	d409e <__cxa_guard_acquire>
   d51c0:	b178      	cbz	r0, d51e2 <_Z19__fetch_global_Wirev+0x36>
   d51c2:	a801      	add	r0, sp, #4
   d51c4:	f7ff ffd8 	bl	d5178 <_Z17acquireWireBufferv>
   d51c8:	aa01      	add	r2, sp, #4
   d51ca:	4621      	mov	r1, r4
   d51cc:	4807      	ldr	r0, [pc, #28]	; (d51ec <_Z19__fetch_global_Wirev+0x40>)
   d51ce:	f7ff fdc3 	bl	d4d58 <_ZN7TwoWireC1E17HAL_I2C_InterfaceRK14HAL_I2C_Config>
   d51d2:	4628      	mov	r0, r5
   d51d4:	f7fe ff68 	bl	d40a8 <__cxa_guard_release>
   d51d8:	4a05      	ldr	r2, [pc, #20]	; (d51f0 <_Z19__fetch_global_Wirev+0x44>)
   d51da:	4906      	ldr	r1, [pc, #24]	; (d51f4 <_Z19__fetch_global_Wirev+0x48>)
   d51dc:	4803      	ldr	r0, [pc, #12]	; (d51ec <_Z19__fetch_global_Wirev+0x40>)
   d51de:	f000 f80b 	bl	d51f8 <__aeabi_atexit>
	return wire;
}
   d51e2:	4802      	ldr	r0, [pc, #8]	; (d51ec <_Z19__fetch_global_Wirev+0x40>)
   d51e4:	b007      	add	sp, #28
   d51e6:	bd30      	pop	{r4, r5, pc}
   d51e8:	2003e734 	.word	0x2003e734
   d51ec:	2003e738 	.word	0x2003e738
   d51f0:	2003e3cc 	.word	0x2003e3cc
   d51f4:	000d4d01 	.word	0x000d4d01

000d51f8 <__aeabi_atexit>:
   d51f8:	460b      	mov	r3, r1
   d51fa:	4601      	mov	r1, r0
   d51fc:	4618      	mov	r0, r3
   d51fe:	f000 be15 	b.w	d5e2c <__cxa_atexit>
	...

000d5204 <_ZSt15get_new_handlerv>:
   d5204:	4b02      	ldr	r3, [pc, #8]	; (d5210 <_ZSt15get_new_handlerv+0xc>)
   d5206:	6818      	ldr	r0, [r3, #0]
   d5208:	f3bf 8f5f 	dmb	sy
   d520c:	4770      	bx	lr
   d520e:	bf00      	nop
   d5210:	2003e74c 	.word	0x2003e74c

000d5214 <_ZdlPvj>:
   d5214:	f7fe bf3f 	b.w	d4096 <_ZdlPv>

000d5218 <_ZnajRKSt9nothrow_t>:
   d5218:	f000 b800 	b.w	d521c <_ZnwjRKSt9nothrow_t>

000d521c <_ZnwjRKSt9nothrow_t>:
   d521c:	b510      	push	{r4, lr}
   d521e:	2800      	cmp	r0, #0
   d5220:	bf14      	ite	ne
   d5222:	4604      	movne	r4, r0
   d5224:	2401      	moveq	r4, #1
   d5226:	4620      	mov	r0, r4
   d5228:	f7ff f964 	bl	d44f4 <malloc>
   d522c:	b920      	cbnz	r0, d5238 <_ZnwjRKSt9nothrow_t+0x1c>
   d522e:	f7ff ffe9 	bl	d5204 <_ZSt15get_new_handlerv>
   d5232:	b108      	cbz	r0, d5238 <_ZnwjRKSt9nothrow_t+0x1c>
   d5234:	4780      	blx	r0
   d5236:	e7f6      	b.n	d5226 <_ZnwjRKSt9nothrow_t+0xa>
   d5238:	bd10      	pop	{r4, pc}
	...

000d523c <_GLOBAL__sub_I__ZNSt12ctype_bynameIcEC2ERKNSt7__cxx1112basic_stringIcSt11char_traitsIcESaIcEEEj>:
   d523c:	4b18      	ldr	r3, [pc, #96]	; (d52a0 <_GLOBAL__sub_I__ZNSt12ctype_bynameIcEC2ERKNSt7__cxx1112basic_stringIcSt11char_traitsIcESaIcEEEj+0x64>)
   d523e:	681a      	ldr	r2, [r3, #0]
   d5240:	07d1      	lsls	r1, r2, #31
   d5242:	bf5c      	itt	pl
   d5244:	2201      	movpl	r2, #1
   d5246:	601a      	strpl	r2, [r3, #0]
   d5248:	4b16      	ldr	r3, [pc, #88]	; (d52a4 <_GLOBAL__sub_I__ZNSt12ctype_bynameIcEC2ERKNSt7__cxx1112basic_stringIcSt11char_traitsIcESaIcEEEj+0x68>)
   d524a:	681a      	ldr	r2, [r3, #0]
   d524c:	07d2      	lsls	r2, r2, #31
   d524e:	bf5c      	itt	pl
   d5250:	2201      	movpl	r2, #1
   d5252:	601a      	strpl	r2, [r3, #0]
   d5254:	4b14      	ldr	r3, [pc, #80]	; (d52a8 <_GLOBAL__sub_I__ZNSt12ctype_bynameIcEC2ERKNSt7__cxx1112basic_stringIcSt11char_traitsIcESaIcEEEj+0x6c>)
   d5256:	681a      	ldr	r2, [r3, #0]
   d5258:	07d0      	lsls	r0, r2, #31
   d525a:	bf5c      	itt	pl
   d525c:	2201      	movpl	r2, #1
   d525e:	601a      	strpl	r2, [r3, #0]
   d5260:	4b12      	ldr	r3, [pc, #72]	; (d52ac <_GLOBAL__sub_I__ZNSt12ctype_bynameIcEC2ERKNSt7__cxx1112basic_stringIcSt11char_traitsIcESaIcEEEj+0x70>)
   d5262:	681a      	ldr	r2, [r3, #0]
   d5264:	07d1      	lsls	r1, r2, #31
   d5266:	bf5c      	itt	pl
   d5268:	2201      	movpl	r2, #1
   d526a:	601a      	strpl	r2, [r3, #0]
   d526c:	4b10      	ldr	r3, [pc, #64]	; (d52b0 <_GLOBAL__sub_I__ZNSt12ctype_bynameIcEC2ERKNSt7__cxx1112basic_stringIcSt11char_traitsIcESaIcEEEj+0x74>)
   d526e:	681a      	ldr	r2, [r3, #0]
   d5270:	07d2      	lsls	r2, r2, #31
   d5272:	bf5c      	itt	pl
   d5274:	2201      	movpl	r2, #1
   d5276:	601a      	strpl	r2, [r3, #0]
   d5278:	4b0e      	ldr	r3, [pc, #56]	; (d52b4 <_GLOBAL__sub_I__ZNSt12ctype_bynameIcEC2ERKNSt7__cxx1112basic_stringIcSt11char_traitsIcESaIcEEEj+0x78>)
   d527a:	681a      	ldr	r2, [r3, #0]
   d527c:	07d0      	lsls	r0, r2, #31
   d527e:	bf5c      	itt	pl
   d5280:	2201      	movpl	r2, #1
   d5282:	601a      	strpl	r2, [r3, #0]
   d5284:	4b0c      	ldr	r3, [pc, #48]	; (d52b8 <_GLOBAL__sub_I__ZNSt12ctype_bynameIcEC2ERKNSt7__cxx1112basic_stringIcSt11char_traitsIcESaIcEEEj+0x7c>)
   d5286:	681a      	ldr	r2, [r3, #0]
   d5288:	07d1      	lsls	r1, r2, #31
   d528a:	bf5c      	itt	pl
   d528c:	2201      	movpl	r2, #1
   d528e:	601a      	strpl	r2, [r3, #0]
   d5290:	4b0a      	ldr	r3, [pc, #40]	; (d52bc <_GLOBAL__sub_I__ZNSt12ctype_bynameIcEC2ERKNSt7__cxx1112basic_stringIcSt11char_traitsIcESaIcEEEj+0x80>)
   d5292:	681a      	ldr	r2, [r3, #0]
   d5294:	07d2      	lsls	r2, r2, #31
   d5296:	bf5c      	itt	pl
   d5298:	2201      	movpl	r2, #1
   d529a:	601a      	strpl	r2, [r3, #0]
   d529c:	4770      	bx	lr
   d529e:	bf00      	nop
   d52a0:	2003e76c 	.word	0x2003e76c
   d52a4:	2003e768 	.word	0x2003e768
   d52a8:	2003e764 	.word	0x2003e764
   d52ac:	2003e760 	.word	0x2003e760
   d52b0:	2003e75c 	.word	0x2003e75c
   d52b4:	2003e758 	.word	0x2003e758
   d52b8:	2003e754 	.word	0x2003e754
   d52bc:	2003e750 	.word	0x2003e750

000d52c0 <_GLOBAL__sub_I__ZNSt12ctype_bynameIwEC2ERKSsj>:
   d52c0:	4b24      	ldr	r3, [pc, #144]	; (d5354 <_GLOBAL__sub_I__ZNSt12ctype_bynameIwEC2ERKSsj+0x94>)
   d52c2:	681a      	ldr	r2, [r3, #0]
   d52c4:	07d0      	lsls	r0, r2, #31
   d52c6:	bf5c      	itt	pl
   d52c8:	2201      	movpl	r2, #1
   d52ca:	601a      	strpl	r2, [r3, #0]
   d52cc:	4b22      	ldr	r3, [pc, #136]	; (d5358 <_GLOBAL__sub_I__ZNSt12ctype_bynameIwEC2ERKSsj+0x98>)
   d52ce:	681a      	ldr	r2, [r3, #0]
   d52d0:	07d1      	lsls	r1, r2, #31
   d52d2:	bf5c      	itt	pl
   d52d4:	2201      	movpl	r2, #1
   d52d6:	601a      	strpl	r2, [r3, #0]
   d52d8:	4b20      	ldr	r3, [pc, #128]	; (d535c <_GLOBAL__sub_I__ZNSt12ctype_bynameIwEC2ERKSsj+0x9c>)
   d52da:	681a      	ldr	r2, [r3, #0]
   d52dc:	07d2      	lsls	r2, r2, #31
   d52de:	bf5c      	itt	pl
   d52e0:	2201      	movpl	r2, #1
   d52e2:	601a      	strpl	r2, [r3, #0]
   d52e4:	4b1e      	ldr	r3, [pc, #120]	; (d5360 <_GLOBAL__sub_I__ZNSt12ctype_bynameIwEC2ERKSsj+0xa0>)
   d52e6:	681a      	ldr	r2, [r3, #0]
   d52e8:	07d0      	lsls	r0, r2, #31
   d52ea:	bf5c      	itt	pl
   d52ec:	2201      	movpl	r2, #1
   d52ee:	601a      	strpl	r2, [r3, #0]
   d52f0:	4b1c      	ldr	r3, [pc, #112]	; (d5364 <_GLOBAL__sub_I__ZNSt12ctype_bynameIwEC2ERKSsj+0xa4>)
   d52f2:	681a      	ldr	r2, [r3, #0]
   d52f4:	07d1      	lsls	r1, r2, #31
   d52f6:	bf5c      	itt	pl
   d52f8:	2201      	movpl	r2, #1
   d52fa:	601a      	strpl	r2, [r3, #0]
   d52fc:	4b1a      	ldr	r3, [pc, #104]	; (d5368 <_GLOBAL__sub_I__ZNSt12ctype_bynameIwEC2ERKSsj+0xa8>)
   d52fe:	681a      	ldr	r2, [r3, #0]
   d5300:	07d2      	lsls	r2, r2, #31
   d5302:	bf5c      	itt	pl
   d5304:	2201      	movpl	r2, #1
   d5306:	601a      	strpl	r2, [r3, #0]
   d5308:	4b18      	ldr	r3, [pc, #96]	; (d536c <_GLOBAL__sub_I__ZNSt12ctype_bynameIwEC2ERKSsj+0xac>)
   d530a:	681a      	ldr	r2, [r3, #0]
   d530c:	07d0      	lsls	r0, r2, #31
   d530e:	bf5c      	itt	pl
   d5310:	2201      	movpl	r2, #1
   d5312:	601a      	strpl	r2, [r3, #0]
   d5314:	4b16      	ldr	r3, [pc, #88]	; (d5370 <_GLOBAL__sub_I__ZNSt12ctype_bynameIwEC2ERKSsj+0xb0>)
   d5316:	681a      	ldr	r2, [r3, #0]
   d5318:	07d1      	lsls	r1, r2, #31
   d531a:	bf5c      	itt	pl
   d531c:	2201      	movpl	r2, #1
   d531e:	601a      	strpl	r2, [r3, #0]
   d5320:	4b14      	ldr	r3, [pc, #80]	; (d5374 <_GLOBAL__sub_I__ZNSt12ctype_bynameIwEC2ERKSsj+0xb4>)
   d5322:	681a      	ldr	r2, [r3, #0]
   d5324:	07d2      	lsls	r2, r2, #31
   d5326:	bf5c      	itt	pl
   d5328:	2201      	movpl	r2, #1
   d532a:	601a      	strpl	r2, [r3, #0]
   d532c:	4b12      	ldr	r3, [pc, #72]	; (d5378 <_GLOBAL__sub_I__ZNSt12ctype_bynameIwEC2ERKSsj+0xb8>)
   d532e:	681a      	ldr	r2, [r3, #0]
   d5330:	07d0      	lsls	r0, r2, #31
   d5332:	bf5c      	itt	pl
   d5334:	2201      	movpl	r2, #1
   d5336:	601a      	strpl	r2, [r3, #0]
   d5338:	4b10      	ldr	r3, [pc, #64]	; (d537c <_GLOBAL__sub_I__ZNSt12ctype_bynameIwEC2ERKSsj+0xbc>)
   d533a:	681a      	ldr	r2, [r3, #0]
   d533c:	07d1      	lsls	r1, r2, #31
   d533e:	bf5c      	itt	pl
   d5340:	2201      	movpl	r2, #1
   d5342:	601a      	strpl	r2, [r3, #0]
   d5344:	4b0e      	ldr	r3, [pc, #56]	; (d5380 <_GLOBAL__sub_I__ZNSt12ctype_bynameIwEC2ERKSsj+0xc0>)
   d5346:	681a      	ldr	r2, [r3, #0]
   d5348:	07d2      	lsls	r2, r2, #31
   d534a:	bf5c      	itt	pl
   d534c:	2201      	movpl	r2, #1
   d534e:	601a      	strpl	r2, [r3, #0]
   d5350:	4770      	bx	lr
   d5352:	bf00      	nop
   d5354:	2003e79c 	.word	0x2003e79c
   d5358:	2003e798 	.word	0x2003e798
   d535c:	2003e794 	.word	0x2003e794
   d5360:	2003e790 	.word	0x2003e790
   d5364:	2003e78c 	.word	0x2003e78c
   d5368:	2003e788 	.word	0x2003e788
   d536c:	2003e784 	.word	0x2003e784
   d5370:	2003e780 	.word	0x2003e780
   d5374:	2003e77c 	.word	0x2003e77c
   d5378:	2003e778 	.word	0x2003e778
   d537c:	2003e774 	.word	0x2003e774
   d5380:	2003e770 	.word	0x2003e770

000d5384 <_GLOBAL__sub_I__ZNSt12ctype_bynameIcEC2ERKSsj>:
   d5384:	4b24      	ldr	r3, [pc, #144]	; (d5418 <_GLOBAL__sub_I__ZNSt12ctype_bynameIcEC2ERKSsj+0x94>)
   d5386:	681a      	ldr	r2, [r3, #0]
   d5388:	07d0      	lsls	r0, r2, #31
   d538a:	bf5c      	itt	pl
   d538c:	2201      	movpl	r2, #1
   d538e:	601a      	strpl	r2, [r3, #0]
   d5390:	4b22      	ldr	r3, [pc, #136]	; (d541c <_GLOBAL__sub_I__ZNSt12ctype_bynameIcEC2ERKSsj+0x98>)
   d5392:	681a      	ldr	r2, [r3, #0]
   d5394:	07d1      	lsls	r1, r2, #31
   d5396:	bf5c      	itt	pl
   d5398:	2201      	movpl	r2, #1
   d539a:	601a      	strpl	r2, [r3, #0]
   d539c:	4b20      	ldr	r3, [pc, #128]	; (d5420 <_GLOBAL__sub_I__ZNSt12ctype_bynameIcEC2ERKSsj+0x9c>)
   d539e:	681a      	ldr	r2, [r3, #0]
   d53a0:	07d2      	lsls	r2, r2, #31
   d53a2:	bf5c      	itt	pl
   d53a4:	2201      	movpl	r2, #1
   d53a6:	601a      	strpl	r2, [r3, #0]
   d53a8:	4b1e      	ldr	r3, [pc, #120]	; (d5424 <_GLOBAL__sub_I__ZNSt12ctype_bynameIcEC2ERKSsj+0xa0>)
   d53aa:	681a      	ldr	r2, [r3, #0]
   d53ac:	07d0      	lsls	r0, r2, #31
   d53ae:	bf5c      	itt	pl
   d53b0:	2201      	movpl	r2, #1
   d53b2:	601a      	strpl	r2, [r3, #0]
   d53b4:	4b1c      	ldr	r3, [pc, #112]	; (d5428 <_GLOBAL__sub_I__ZNSt12ctype_bynameIcEC2ERKSsj+0xa4>)
   d53b6:	681a      	ldr	r2, [r3, #0]
   d53b8:	07d1      	lsls	r1, r2, #31
   d53ba:	bf5c      	itt	pl
   d53bc:	2201      	movpl	r2, #1
   d53be:	601a      	strpl	r2, [r3, #0]
   d53c0:	4b1a      	ldr	r3, [pc, #104]	; (d542c <_GLOBAL__sub_I__ZNSt12ctype_bynameIcEC2ERKSsj+0xa8>)
   d53c2:	681a      	ldr	r2, [r3, #0]
   d53c4:	07d2      	lsls	r2, r2, #31
   d53c6:	bf5c      	itt	pl
   d53c8:	2201      	movpl	r2, #1
   d53ca:	601a      	strpl	r2, [r3, #0]
   d53cc:	4b18      	ldr	r3, [pc, #96]	; (d5430 <_GLOBAL__sub_I__ZNSt12ctype_bynameIcEC2ERKSsj+0xac>)
   d53ce:	681a      	ldr	r2, [r3, #0]
   d53d0:	07d0      	lsls	r0, r2, #31
   d53d2:	bf5c      	itt	pl
   d53d4:	2201      	movpl	r2, #1
   d53d6:	601a      	strpl	r2, [r3, #0]
   d53d8:	4b16      	ldr	r3, [pc, #88]	; (d5434 <_GLOBAL__sub_I__ZNSt12ctype_bynameIcEC2ERKSsj+0xb0>)
   d53da:	681a      	ldr	r2, [r3, #0]
   d53dc:	07d1      	lsls	r1, r2, #31
   d53de:	bf5c      	itt	pl
   d53e0:	2201      	movpl	r2, #1
   d53e2:	601a      	strpl	r2, [r3, #0]
   d53e4:	4b14      	ldr	r3, [pc, #80]	; (d5438 <_GLOBAL__sub_I__ZNSt12ctype_bynameIcEC2ERKSsj+0xb4>)
   d53e6:	681a      	ldr	r2, [r3, #0]
   d53e8:	07d2      	lsls	r2, r2, #31
   d53ea:	bf5c      	itt	pl
   d53ec:	2201      	movpl	r2, #1
   d53ee:	601a      	strpl	r2, [r3, #0]
   d53f0:	4b12      	ldr	r3, [pc, #72]	; (d543c <_GLOBAL__sub_I__ZNSt12ctype_bynameIcEC2ERKSsj+0xb8>)
   d53f2:	681a      	ldr	r2, [r3, #0]
   d53f4:	07d0      	lsls	r0, r2, #31
   d53f6:	bf5c      	itt	pl
   d53f8:	2201      	movpl	r2, #1
   d53fa:	601a      	strpl	r2, [r3, #0]
   d53fc:	4b10      	ldr	r3, [pc, #64]	; (d5440 <_GLOBAL__sub_I__ZNSt12ctype_bynameIcEC2ERKSsj+0xbc>)
   d53fe:	681a      	ldr	r2, [r3, #0]
   d5400:	07d1      	lsls	r1, r2, #31
   d5402:	bf5c      	itt	pl
   d5404:	2201      	movpl	r2, #1
   d5406:	601a      	strpl	r2, [r3, #0]
   d5408:	4b0e      	ldr	r3, [pc, #56]	; (d5444 <_GLOBAL__sub_I__ZNSt12ctype_bynameIcEC2ERKSsj+0xc0>)
   d540a:	681a      	ldr	r2, [r3, #0]
   d540c:	07d2      	lsls	r2, r2, #31
   d540e:	bf5c      	itt	pl
   d5410:	2201      	movpl	r2, #1
   d5412:	601a      	strpl	r2, [r3, #0]
   d5414:	4770      	bx	lr
   d5416:	bf00      	nop
   d5418:	2003e7cc 	.word	0x2003e7cc
   d541c:	2003e7c8 	.word	0x2003e7c8
   d5420:	2003e7c4 	.word	0x2003e7c4
   d5424:	2003e7c0 	.word	0x2003e7c0
   d5428:	2003e7bc 	.word	0x2003e7bc
   d542c:	2003e7b8 	.word	0x2003e7b8
   d5430:	2003e7b4 	.word	0x2003e7b4
   d5434:	2003e7b0 	.word	0x2003e7b0
   d5438:	2003e7ac 	.word	0x2003e7ac
   d543c:	2003e7a8 	.word	0x2003e7a8
   d5440:	2003e7a4 	.word	0x2003e7a4
   d5444:	2003e7a0 	.word	0x2003e7a0

000d5448 <_GLOBAL__sub_I__ZNSt12ctype_bynameIwEC2ERKNSt7__cxx1112basic_stringIcSt11char_traitsIcESaIcEEEj>:
   d5448:	4b18      	ldr	r3, [pc, #96]	; (d54ac <_GLOBAL__sub_I__ZNSt12ctype_bynameIwEC2ERKNSt7__cxx1112basic_stringIcSt11char_traitsIcESaIcEEEj+0x64>)
   d544a:	681a      	ldr	r2, [r3, #0]
   d544c:	07d1      	lsls	r1, r2, #31
   d544e:	bf5c      	itt	pl
   d5450:	2201      	movpl	r2, #1
   d5452:	601a      	strpl	r2, [r3, #0]
   d5454:	4b16      	ldr	r3, [pc, #88]	; (d54b0 <_GLOBAL__sub_I__ZNSt12ctype_bynameIwEC2ERKNSt7__cxx1112basic_stringIcSt11char_traitsIcESaIcEEEj+0x68>)
   d5456:	681a      	ldr	r2, [r3, #0]
   d5458:	07d2      	lsls	r2, r2, #31
   d545a:	bf5c      	itt	pl
   d545c:	2201      	movpl	r2, #1
   d545e:	601a      	strpl	r2, [r3, #0]
   d5460:	4b14      	ldr	r3, [pc, #80]	; (d54b4 <_GLOBAL__sub_I__ZNSt12ctype_bynameIwEC2ERKNSt7__cxx1112basic_stringIcSt11char_traitsIcESaIcEEEj+0x6c>)
   d5462:	681a      	ldr	r2, [r3, #0]
   d5464:	07d0      	lsls	r0, r2, #31
   d5466:	bf5c      	itt	pl
   d5468:	2201      	movpl	r2, #1
   d546a:	601a      	strpl	r2, [r3, #0]
   d546c:	4b12      	ldr	r3, [pc, #72]	; (d54b8 <_GLOBAL__sub_I__ZNSt12ctype_bynameIwEC2ERKNSt7__cxx1112basic_stringIcSt11char_traitsIcESaIcEEEj+0x70>)
   d546e:	681a      	ldr	r2, [r3, #0]
   d5470:	07d1      	lsls	r1, r2, #31
   d5472:	bf5c      	itt	pl
   d5474:	2201      	movpl	r2, #1
   d5476:	601a      	strpl	r2, [r3, #0]
   d5478:	4b10      	ldr	r3, [pc, #64]	; (d54bc <_GLOBAL__sub_I__ZNSt12ctype_bynameIwEC2ERKNSt7__cxx1112basic_stringIcSt11char_traitsIcESaIcEEEj+0x74>)
   d547a:	681a      	ldr	r2, [r3, #0]
   d547c:	07d2      	lsls	r2, r2, #31
   d547e:	bf5c      	itt	pl
   d5480:	2201      	movpl	r2, #1
   d5482:	601a      	strpl	r2, [r3, #0]
   d5484:	4b0e      	ldr	r3, [pc, #56]	; (d54c0 <_GLOBAL__sub_I__ZNSt12ctype_bynameIwEC2ERKNSt7__cxx1112basic_stringIcSt11char_traitsIcESaIcEEEj+0x78>)
   d5486:	681a      	ldr	r2, [r3, #0]
   d5488:	07d0      	lsls	r0, r2, #31
   d548a:	bf5c      	itt	pl
   d548c:	2201      	movpl	r2, #1
   d548e:	601a      	strpl	r2, [r3, #0]
   d5490:	4b0c      	ldr	r3, [pc, #48]	; (d54c4 <_GLOBAL__sub_I__ZNSt12ctype_bynameIwEC2ERKNSt7__cxx1112basic_stringIcSt11char_traitsIcESaIcEEEj+0x7c>)
   d5492:	681a      	ldr	r2, [r3, #0]
   d5494:	07d1      	lsls	r1, r2, #31
   d5496:	bf5c      	itt	pl
   d5498:	2201      	movpl	r2, #1
   d549a:	601a      	strpl	r2, [r3, #0]
   d549c:	4b0a      	ldr	r3, [pc, #40]	; (d54c8 <_GLOBAL__sub_I__ZNSt12ctype_bynameIwEC2ERKNSt7__cxx1112basic_stringIcSt11char_traitsIcESaIcEEEj+0x80>)
   d549e:	681a      	ldr	r2, [r3, #0]
   d54a0:	07d2      	lsls	r2, r2, #31
   d54a2:	bf5c      	itt	pl
   d54a4:	2201      	movpl	r2, #1
   d54a6:	601a      	strpl	r2, [r3, #0]
   d54a8:	4770      	bx	lr
   d54aa:	bf00      	nop
   d54ac:	2003e7ec 	.word	0x2003e7ec
   d54b0:	2003e7e8 	.word	0x2003e7e8
   d54b4:	2003e7e4 	.word	0x2003e7e4
   d54b8:	2003e7e0 	.word	0x2003e7e0
   d54bc:	2003e7dc 	.word	0x2003e7dc
   d54c0:	2003e7d8 	.word	0x2003e7d8
   d54c4:	2003e7d4 	.word	0x2003e7d4
   d54c8:	2003e7d0 	.word	0x2003e7d0

000d54cc <__aeabi_drsub>:
   d54cc:	f081 4100 	eor.w	r1, r1, #2147483648	; 0x80000000
   d54d0:	e002      	b.n	d54d8 <__adddf3>
   d54d2:	bf00      	nop

000d54d4 <__aeabi_dsub>:
   d54d4:	f083 4300 	eor.w	r3, r3, #2147483648	; 0x80000000

000d54d8 <__adddf3>:
   d54d8:	b530      	push	{r4, r5, lr}
   d54da:	ea4f 0441 	mov.w	r4, r1, lsl #1
   d54de:	ea4f 0543 	mov.w	r5, r3, lsl #1
   d54e2:	ea94 0f05 	teq	r4, r5
   d54e6:	bf08      	it	eq
   d54e8:	ea90 0f02 	teqeq	r0, r2
   d54ec:	bf1f      	itttt	ne
   d54ee:	ea54 0c00 	orrsne.w	ip, r4, r0
   d54f2:	ea55 0c02 	orrsne.w	ip, r5, r2
   d54f6:	ea7f 5c64 	mvnsne.w	ip, r4, asr #21
   d54fa:	ea7f 5c65 	mvnsne.w	ip, r5, asr #21
   d54fe:	f000 80e2 	beq.w	d56c6 <__adddf3+0x1ee>
   d5502:	ea4f 5454 	mov.w	r4, r4, lsr #21
   d5506:	ebd4 5555 	rsbs	r5, r4, r5, lsr #21
   d550a:	bfb8      	it	lt
   d550c:	426d      	neglt	r5, r5
   d550e:	dd0c      	ble.n	d552a <__adddf3+0x52>
   d5510:	442c      	add	r4, r5
   d5512:	ea80 0202 	eor.w	r2, r0, r2
   d5516:	ea81 0303 	eor.w	r3, r1, r3
   d551a:	ea82 0000 	eor.w	r0, r2, r0
   d551e:	ea83 0101 	eor.w	r1, r3, r1
   d5522:	ea80 0202 	eor.w	r2, r0, r2
   d5526:	ea81 0303 	eor.w	r3, r1, r3
   d552a:	2d36      	cmp	r5, #54	; 0x36
   d552c:	bf88      	it	hi
   d552e:	bd30      	pophi	{r4, r5, pc}
   d5530:	f011 4f00 	tst.w	r1, #2147483648	; 0x80000000
   d5534:	ea4f 3101 	mov.w	r1, r1, lsl #12
   d5538:	f44f 1c80 	mov.w	ip, #1048576	; 0x100000
   d553c:	ea4c 3111 	orr.w	r1, ip, r1, lsr #12
   d5540:	d002      	beq.n	d5548 <__adddf3+0x70>
   d5542:	4240      	negs	r0, r0
   d5544:	eb61 0141 	sbc.w	r1, r1, r1, lsl #1
   d5548:	f013 4f00 	tst.w	r3, #2147483648	; 0x80000000
   d554c:	ea4f 3303 	mov.w	r3, r3, lsl #12
   d5550:	ea4c 3313 	orr.w	r3, ip, r3, lsr #12
   d5554:	d002      	beq.n	d555c <__adddf3+0x84>
   d5556:	4252      	negs	r2, r2
   d5558:	eb63 0343 	sbc.w	r3, r3, r3, lsl #1
   d555c:	ea94 0f05 	teq	r4, r5
   d5560:	f000 80a7 	beq.w	d56b2 <__adddf3+0x1da>
   d5564:	f1a4 0401 	sub.w	r4, r4, #1
   d5568:	f1d5 0e20 	rsbs	lr, r5, #32
   d556c:	db0d      	blt.n	d558a <__adddf3+0xb2>
   d556e:	fa02 fc0e 	lsl.w	ip, r2, lr
   d5572:	fa22 f205 	lsr.w	r2, r2, r5
   d5576:	1880      	adds	r0, r0, r2
   d5578:	f141 0100 	adc.w	r1, r1, #0
   d557c:	fa03 f20e 	lsl.w	r2, r3, lr
   d5580:	1880      	adds	r0, r0, r2
   d5582:	fa43 f305 	asr.w	r3, r3, r5
   d5586:	4159      	adcs	r1, r3
   d5588:	e00e      	b.n	d55a8 <__adddf3+0xd0>
   d558a:	f1a5 0520 	sub.w	r5, r5, #32
   d558e:	f10e 0e20 	add.w	lr, lr, #32
   d5592:	2a01      	cmp	r2, #1
   d5594:	fa03 fc0e 	lsl.w	ip, r3, lr
   d5598:	bf28      	it	cs
   d559a:	f04c 0c02 	orrcs.w	ip, ip, #2
   d559e:	fa43 f305 	asr.w	r3, r3, r5
   d55a2:	18c0      	adds	r0, r0, r3
   d55a4:	eb51 71e3 	adcs.w	r1, r1, r3, asr #31
   d55a8:	f001 4500 	and.w	r5, r1, #2147483648	; 0x80000000
   d55ac:	d507      	bpl.n	d55be <__adddf3+0xe6>
   d55ae:	f04f 0e00 	mov.w	lr, #0
   d55b2:	f1dc 0c00 	rsbs	ip, ip, #0
   d55b6:	eb7e 0000 	sbcs.w	r0, lr, r0
   d55ba:	eb6e 0101 	sbc.w	r1, lr, r1
   d55be:	f5b1 1f80 	cmp.w	r1, #1048576	; 0x100000
   d55c2:	d31b      	bcc.n	d55fc <__adddf3+0x124>
   d55c4:	f5b1 1f00 	cmp.w	r1, #2097152	; 0x200000
   d55c8:	d30c      	bcc.n	d55e4 <__adddf3+0x10c>
   d55ca:	0849      	lsrs	r1, r1, #1
   d55cc:	ea5f 0030 	movs.w	r0, r0, rrx
   d55d0:	ea4f 0c3c 	mov.w	ip, ip, rrx
   d55d4:	f104 0401 	add.w	r4, r4, #1
   d55d8:	ea4f 5244 	mov.w	r2, r4, lsl #21
   d55dc:	f512 0f80 	cmn.w	r2, #4194304	; 0x400000
   d55e0:	f080 809a 	bcs.w	d5718 <__adddf3+0x240>
   d55e4:	f1bc 4f00 	cmp.w	ip, #2147483648	; 0x80000000
   d55e8:	bf08      	it	eq
   d55ea:	ea5f 0c50 	movseq.w	ip, r0, lsr #1
   d55ee:	f150 0000 	adcs.w	r0, r0, #0
   d55f2:	eb41 5104 	adc.w	r1, r1, r4, lsl #20
   d55f6:	ea41 0105 	orr.w	r1, r1, r5
   d55fa:	bd30      	pop	{r4, r5, pc}
   d55fc:	ea5f 0c4c 	movs.w	ip, ip, lsl #1
   d5600:	4140      	adcs	r0, r0
   d5602:	eb41 0101 	adc.w	r1, r1, r1
   d5606:	f411 1f80 	tst.w	r1, #1048576	; 0x100000
   d560a:	f1a4 0401 	sub.w	r4, r4, #1
   d560e:	d1e9      	bne.n	d55e4 <__adddf3+0x10c>
   d5610:	f091 0f00 	teq	r1, #0
   d5614:	bf04      	itt	eq
   d5616:	4601      	moveq	r1, r0
   d5618:	2000      	moveq	r0, #0
   d561a:	fab1 f381 	clz	r3, r1
   d561e:	bf08      	it	eq
   d5620:	3320      	addeq	r3, #32
   d5622:	f1a3 030b 	sub.w	r3, r3, #11
   d5626:	f1b3 0220 	subs.w	r2, r3, #32
   d562a:	da0c      	bge.n	d5646 <__adddf3+0x16e>
   d562c:	320c      	adds	r2, #12
   d562e:	dd08      	ble.n	d5642 <__adddf3+0x16a>
   d5630:	f102 0c14 	add.w	ip, r2, #20
   d5634:	f1c2 020c 	rsb	r2, r2, #12
   d5638:	fa01 f00c 	lsl.w	r0, r1, ip
   d563c:	fa21 f102 	lsr.w	r1, r1, r2
   d5640:	e00c      	b.n	d565c <__adddf3+0x184>
   d5642:	f102 0214 	add.w	r2, r2, #20
   d5646:	bfd8      	it	le
   d5648:	f1c2 0c20 	rsble	ip, r2, #32
   d564c:	fa01 f102 	lsl.w	r1, r1, r2
   d5650:	fa20 fc0c 	lsr.w	ip, r0, ip
   d5654:	bfdc      	itt	le
   d5656:	ea41 010c 	orrle.w	r1, r1, ip
   d565a:	4090      	lslle	r0, r2
   d565c:	1ae4      	subs	r4, r4, r3
   d565e:	bfa2      	ittt	ge
   d5660:	eb01 5104 	addge.w	r1, r1, r4, lsl #20
   d5664:	4329      	orrge	r1, r5
   d5666:	bd30      	popge	{r4, r5, pc}
   d5668:	ea6f 0404 	mvn.w	r4, r4
   d566c:	3c1f      	subs	r4, #31
   d566e:	da1c      	bge.n	d56aa <__adddf3+0x1d2>
   d5670:	340c      	adds	r4, #12
   d5672:	dc0e      	bgt.n	d5692 <__adddf3+0x1ba>
   d5674:	f104 0414 	add.w	r4, r4, #20
   d5678:	f1c4 0220 	rsb	r2, r4, #32
   d567c:	fa20 f004 	lsr.w	r0, r0, r4
   d5680:	fa01 f302 	lsl.w	r3, r1, r2
   d5684:	ea40 0003 	orr.w	r0, r0, r3
   d5688:	fa21 f304 	lsr.w	r3, r1, r4
   d568c:	ea45 0103 	orr.w	r1, r5, r3
   d5690:	bd30      	pop	{r4, r5, pc}
   d5692:	f1c4 040c 	rsb	r4, r4, #12
   d5696:	f1c4 0220 	rsb	r2, r4, #32
   d569a:	fa20 f002 	lsr.w	r0, r0, r2
   d569e:	fa01 f304 	lsl.w	r3, r1, r4
   d56a2:	ea40 0003 	orr.w	r0, r0, r3
   d56a6:	4629      	mov	r1, r5
   d56a8:	bd30      	pop	{r4, r5, pc}
   d56aa:	fa21 f004 	lsr.w	r0, r1, r4
   d56ae:	4629      	mov	r1, r5
   d56b0:	bd30      	pop	{r4, r5, pc}
   d56b2:	f094 0f00 	teq	r4, #0
   d56b6:	f483 1380 	eor.w	r3, r3, #1048576	; 0x100000
   d56ba:	bf06      	itte	eq
   d56bc:	f481 1180 	eoreq.w	r1, r1, #1048576	; 0x100000
   d56c0:	3401      	addeq	r4, #1
   d56c2:	3d01      	subne	r5, #1
   d56c4:	e74e      	b.n	d5564 <__adddf3+0x8c>
   d56c6:	ea7f 5c64 	mvns.w	ip, r4, asr #21
   d56ca:	bf18      	it	ne
   d56cc:	ea7f 5c65 	mvnsne.w	ip, r5, asr #21
   d56d0:	d029      	beq.n	d5726 <__adddf3+0x24e>
   d56d2:	ea94 0f05 	teq	r4, r5
   d56d6:	bf08      	it	eq
   d56d8:	ea90 0f02 	teqeq	r0, r2
   d56dc:	d005      	beq.n	d56ea <__adddf3+0x212>
   d56de:	ea54 0c00 	orrs.w	ip, r4, r0
   d56e2:	bf04      	itt	eq
   d56e4:	4619      	moveq	r1, r3
   d56e6:	4610      	moveq	r0, r2
   d56e8:	bd30      	pop	{r4, r5, pc}
   d56ea:	ea91 0f03 	teq	r1, r3
   d56ee:	bf1e      	ittt	ne
   d56f0:	2100      	movne	r1, #0
   d56f2:	2000      	movne	r0, #0
   d56f4:	bd30      	popne	{r4, r5, pc}
   d56f6:	ea5f 5c54 	movs.w	ip, r4, lsr #21
   d56fa:	d105      	bne.n	d5708 <__adddf3+0x230>
   d56fc:	0040      	lsls	r0, r0, #1
   d56fe:	4149      	adcs	r1, r1
   d5700:	bf28      	it	cs
   d5702:	f041 4100 	orrcs.w	r1, r1, #2147483648	; 0x80000000
   d5706:	bd30      	pop	{r4, r5, pc}
   d5708:	f514 0480 	adds.w	r4, r4, #4194304	; 0x400000
   d570c:	bf3c      	itt	cc
   d570e:	f501 1180 	addcc.w	r1, r1, #1048576	; 0x100000
   d5712:	bd30      	popcc	{r4, r5, pc}
   d5714:	f001 4500 	and.w	r5, r1, #2147483648	; 0x80000000
   d5718:	f045 41fe 	orr.w	r1, r5, #2130706432	; 0x7f000000
   d571c:	f441 0170 	orr.w	r1, r1, #15728640	; 0xf00000
   d5720:	f04f 0000 	mov.w	r0, #0
   d5724:	bd30      	pop	{r4, r5, pc}
   d5726:	ea7f 5c64 	mvns.w	ip, r4, asr #21
   d572a:	bf1a      	itte	ne
   d572c:	4619      	movne	r1, r3
   d572e:	4610      	movne	r0, r2
   d5730:	ea7f 5c65 	mvnseq.w	ip, r5, asr #21
   d5734:	bf1c      	itt	ne
   d5736:	460b      	movne	r3, r1
   d5738:	4602      	movne	r2, r0
   d573a:	ea50 3401 	orrs.w	r4, r0, r1, lsl #12
   d573e:	bf06      	itte	eq
   d5740:	ea52 3503 	orrseq.w	r5, r2, r3, lsl #12
   d5744:	ea91 0f03 	teqeq	r1, r3
   d5748:	f441 2100 	orrne.w	r1, r1, #524288	; 0x80000
   d574c:	bd30      	pop	{r4, r5, pc}
   d574e:	bf00      	nop

000d5750 <__aeabi_ui2d>:
   d5750:	f090 0f00 	teq	r0, #0
   d5754:	bf04      	itt	eq
   d5756:	2100      	moveq	r1, #0
   d5758:	4770      	bxeq	lr
   d575a:	b530      	push	{r4, r5, lr}
   d575c:	f44f 6480 	mov.w	r4, #1024	; 0x400
   d5760:	f104 0432 	add.w	r4, r4, #50	; 0x32
   d5764:	f04f 0500 	mov.w	r5, #0
   d5768:	f04f 0100 	mov.w	r1, #0
   d576c:	e750      	b.n	d5610 <__adddf3+0x138>
   d576e:	bf00      	nop

000d5770 <__aeabi_i2d>:
   d5770:	f090 0f00 	teq	r0, #0
   d5774:	bf04      	itt	eq
   d5776:	2100      	moveq	r1, #0
   d5778:	4770      	bxeq	lr
   d577a:	b530      	push	{r4, r5, lr}
   d577c:	f44f 6480 	mov.w	r4, #1024	; 0x400
   d5780:	f104 0432 	add.w	r4, r4, #50	; 0x32
   d5784:	f010 4500 	ands.w	r5, r0, #2147483648	; 0x80000000
   d5788:	bf48      	it	mi
   d578a:	4240      	negmi	r0, r0
   d578c:	f04f 0100 	mov.w	r1, #0
   d5790:	e73e      	b.n	d5610 <__adddf3+0x138>
   d5792:	bf00      	nop

000d5794 <__aeabi_f2d>:
   d5794:	0042      	lsls	r2, r0, #1
   d5796:	ea4f 01e2 	mov.w	r1, r2, asr #3
   d579a:	ea4f 0131 	mov.w	r1, r1, rrx
   d579e:	ea4f 7002 	mov.w	r0, r2, lsl #28
   d57a2:	bf1f      	itttt	ne
   d57a4:	f012 437f 	andsne.w	r3, r2, #4278190080	; 0xff000000
   d57a8:	f093 4f7f 	teqne	r3, #4278190080	; 0xff000000
   d57ac:	f081 5160 	eorne.w	r1, r1, #939524096	; 0x38000000
   d57b0:	4770      	bxne	lr
   d57b2:	f092 0f00 	teq	r2, #0
   d57b6:	bf14      	ite	ne
   d57b8:	f093 4f7f 	teqne	r3, #4278190080	; 0xff000000
   d57bc:	4770      	bxeq	lr
   d57be:	b530      	push	{r4, r5, lr}
   d57c0:	f44f 7460 	mov.w	r4, #896	; 0x380
   d57c4:	f001 4500 	and.w	r5, r1, #2147483648	; 0x80000000
   d57c8:	f021 4100 	bic.w	r1, r1, #2147483648	; 0x80000000
   d57cc:	e720      	b.n	d5610 <__adddf3+0x138>
   d57ce:	bf00      	nop

000d57d0 <__aeabi_ul2d>:
   d57d0:	ea50 0201 	orrs.w	r2, r0, r1
   d57d4:	bf08      	it	eq
   d57d6:	4770      	bxeq	lr
   d57d8:	b530      	push	{r4, r5, lr}
   d57da:	f04f 0500 	mov.w	r5, #0
   d57de:	e00a      	b.n	d57f6 <__aeabi_l2d+0x16>

000d57e0 <__aeabi_l2d>:
   d57e0:	ea50 0201 	orrs.w	r2, r0, r1
   d57e4:	bf08      	it	eq
   d57e6:	4770      	bxeq	lr
   d57e8:	b530      	push	{r4, r5, lr}
   d57ea:	f011 4500 	ands.w	r5, r1, #2147483648	; 0x80000000
   d57ee:	d502      	bpl.n	d57f6 <__aeabi_l2d+0x16>
   d57f0:	4240      	negs	r0, r0
   d57f2:	eb61 0141 	sbc.w	r1, r1, r1, lsl #1
   d57f6:	f44f 6480 	mov.w	r4, #1024	; 0x400
   d57fa:	f104 0432 	add.w	r4, r4, #50	; 0x32
   d57fe:	ea5f 5c91 	movs.w	ip, r1, lsr #22
   d5802:	f43f aedc 	beq.w	d55be <__adddf3+0xe6>
   d5806:	f04f 0203 	mov.w	r2, #3
   d580a:	ea5f 0cdc 	movs.w	ip, ip, lsr #3
   d580e:	bf18      	it	ne
   d5810:	3203      	addne	r2, #3
   d5812:	ea5f 0cdc 	movs.w	ip, ip, lsr #3
   d5816:	bf18      	it	ne
   d5818:	3203      	addne	r2, #3
   d581a:	eb02 02dc 	add.w	r2, r2, ip, lsr #3
   d581e:	f1c2 0320 	rsb	r3, r2, #32
   d5822:	fa00 fc03 	lsl.w	ip, r0, r3
   d5826:	fa20 f002 	lsr.w	r0, r0, r2
   d582a:	fa01 fe03 	lsl.w	lr, r1, r3
   d582e:	ea40 000e 	orr.w	r0, r0, lr
   d5832:	fa21 f102 	lsr.w	r1, r1, r2
   d5836:	4414      	add	r4, r2
   d5838:	e6c1      	b.n	d55be <__adddf3+0xe6>
   d583a:	bf00      	nop

000d583c <__aeabi_dmul>:
   d583c:	b570      	push	{r4, r5, r6, lr}
   d583e:	f04f 0cff 	mov.w	ip, #255	; 0xff
   d5842:	f44c 6ce0 	orr.w	ip, ip, #1792	; 0x700
   d5846:	ea1c 5411 	ands.w	r4, ip, r1, lsr #20
   d584a:	bf1d      	ittte	ne
   d584c:	ea1c 5513 	andsne.w	r5, ip, r3, lsr #20
   d5850:	ea94 0f0c 	teqne	r4, ip
   d5854:	ea95 0f0c 	teqne	r5, ip
   d5858:	f000 f8de 	bleq	d5a18 <__aeabi_dmul+0x1dc>
   d585c:	442c      	add	r4, r5
   d585e:	ea81 0603 	eor.w	r6, r1, r3
   d5862:	ea21 514c 	bic.w	r1, r1, ip, lsl #21
   d5866:	ea23 534c 	bic.w	r3, r3, ip, lsl #21
   d586a:	ea50 3501 	orrs.w	r5, r0, r1, lsl #12
   d586e:	bf18      	it	ne
   d5870:	ea52 3503 	orrsne.w	r5, r2, r3, lsl #12
   d5874:	f441 1180 	orr.w	r1, r1, #1048576	; 0x100000
   d5878:	f443 1380 	orr.w	r3, r3, #1048576	; 0x100000
   d587c:	d038      	beq.n	d58f0 <__aeabi_dmul+0xb4>
   d587e:	fba0 ce02 	umull	ip, lr, r0, r2
   d5882:	f04f 0500 	mov.w	r5, #0
   d5886:	fbe1 e502 	umlal	lr, r5, r1, r2
   d588a:	f006 4200 	and.w	r2, r6, #2147483648	; 0x80000000
   d588e:	fbe0 e503 	umlal	lr, r5, r0, r3
   d5892:	f04f 0600 	mov.w	r6, #0
   d5896:	fbe1 5603 	umlal	r5, r6, r1, r3
   d589a:	f09c 0f00 	teq	ip, #0
   d589e:	bf18      	it	ne
   d58a0:	f04e 0e01 	orrne.w	lr, lr, #1
   d58a4:	f1a4 04ff 	sub.w	r4, r4, #255	; 0xff
   d58a8:	f5b6 7f00 	cmp.w	r6, #512	; 0x200
   d58ac:	f564 7440 	sbc.w	r4, r4, #768	; 0x300
   d58b0:	d204      	bcs.n	d58bc <__aeabi_dmul+0x80>
   d58b2:	ea5f 0e4e 	movs.w	lr, lr, lsl #1
   d58b6:	416d      	adcs	r5, r5
   d58b8:	eb46 0606 	adc.w	r6, r6, r6
   d58bc:	ea42 21c6 	orr.w	r1, r2, r6, lsl #11
   d58c0:	ea41 5155 	orr.w	r1, r1, r5, lsr #21
   d58c4:	ea4f 20c5 	mov.w	r0, r5, lsl #11
   d58c8:	ea40 505e 	orr.w	r0, r0, lr, lsr #21
   d58cc:	ea4f 2ece 	mov.w	lr, lr, lsl #11
   d58d0:	f1b4 0cfd 	subs.w	ip, r4, #253	; 0xfd
   d58d4:	bf88      	it	hi
   d58d6:	f5bc 6fe0 	cmphi.w	ip, #1792	; 0x700
   d58da:	d81e      	bhi.n	d591a <__aeabi_dmul+0xde>
   d58dc:	f1be 4f00 	cmp.w	lr, #2147483648	; 0x80000000
   d58e0:	bf08      	it	eq
   d58e2:	ea5f 0e50 	movseq.w	lr, r0, lsr #1
   d58e6:	f150 0000 	adcs.w	r0, r0, #0
   d58ea:	eb41 5104 	adc.w	r1, r1, r4, lsl #20
   d58ee:	bd70      	pop	{r4, r5, r6, pc}
   d58f0:	f006 4600 	and.w	r6, r6, #2147483648	; 0x80000000
   d58f4:	ea46 0101 	orr.w	r1, r6, r1
   d58f8:	ea40 0002 	orr.w	r0, r0, r2
   d58fc:	ea81 0103 	eor.w	r1, r1, r3
   d5900:	ebb4 045c 	subs.w	r4, r4, ip, lsr #1
   d5904:	bfc2      	ittt	gt
   d5906:	ebd4 050c 	rsbsgt	r5, r4, ip
   d590a:	ea41 5104 	orrgt.w	r1, r1, r4, lsl #20
   d590e:	bd70      	popgt	{r4, r5, r6, pc}
   d5910:	f441 1180 	orr.w	r1, r1, #1048576	; 0x100000
   d5914:	f04f 0e00 	mov.w	lr, #0
   d5918:	3c01      	subs	r4, #1
   d591a:	f300 80ab 	bgt.w	d5a74 <__aeabi_dmul+0x238>
   d591e:	f114 0f36 	cmn.w	r4, #54	; 0x36
   d5922:	bfde      	ittt	le
   d5924:	2000      	movle	r0, #0
   d5926:	f001 4100 	andle.w	r1, r1, #2147483648	; 0x80000000
   d592a:	bd70      	pople	{r4, r5, r6, pc}
   d592c:	f1c4 0400 	rsb	r4, r4, #0
   d5930:	3c20      	subs	r4, #32
   d5932:	da35      	bge.n	d59a0 <__aeabi_dmul+0x164>
   d5934:	340c      	adds	r4, #12
   d5936:	dc1b      	bgt.n	d5970 <__aeabi_dmul+0x134>
   d5938:	f104 0414 	add.w	r4, r4, #20
   d593c:	f1c4 0520 	rsb	r5, r4, #32
   d5940:	fa00 f305 	lsl.w	r3, r0, r5
   d5944:	fa20 f004 	lsr.w	r0, r0, r4
   d5948:	fa01 f205 	lsl.w	r2, r1, r5
   d594c:	ea40 0002 	orr.w	r0, r0, r2
   d5950:	f001 4200 	and.w	r2, r1, #2147483648	; 0x80000000
   d5954:	f021 4100 	bic.w	r1, r1, #2147483648	; 0x80000000
   d5958:	eb10 70d3 	adds.w	r0, r0, r3, lsr #31
   d595c:	fa21 f604 	lsr.w	r6, r1, r4
   d5960:	eb42 0106 	adc.w	r1, r2, r6
   d5964:	ea5e 0e43 	orrs.w	lr, lr, r3, lsl #1
   d5968:	bf08      	it	eq
   d596a:	ea20 70d3 	biceq.w	r0, r0, r3, lsr #31
   d596e:	bd70      	pop	{r4, r5, r6, pc}
   d5970:	f1c4 040c 	rsb	r4, r4, #12
   d5974:	f1c4 0520 	rsb	r5, r4, #32
   d5978:	fa00 f304 	lsl.w	r3, r0, r4
   d597c:	fa20 f005 	lsr.w	r0, r0, r5
   d5980:	fa01 f204 	lsl.w	r2, r1, r4
   d5984:	ea40 0002 	orr.w	r0, r0, r2
   d5988:	f001 4100 	and.w	r1, r1, #2147483648	; 0x80000000
   d598c:	eb10 70d3 	adds.w	r0, r0, r3, lsr #31
   d5990:	f141 0100 	adc.w	r1, r1, #0
   d5994:	ea5e 0e43 	orrs.w	lr, lr, r3, lsl #1
   d5998:	bf08      	it	eq
   d599a:	ea20 70d3 	biceq.w	r0, r0, r3, lsr #31
   d599e:	bd70      	pop	{r4, r5, r6, pc}
   d59a0:	f1c4 0520 	rsb	r5, r4, #32
   d59a4:	fa00 f205 	lsl.w	r2, r0, r5
   d59a8:	ea4e 0e02 	orr.w	lr, lr, r2
   d59ac:	fa20 f304 	lsr.w	r3, r0, r4
   d59b0:	fa01 f205 	lsl.w	r2, r1, r5
   d59b4:	ea43 0302 	orr.w	r3, r3, r2
   d59b8:	fa21 f004 	lsr.w	r0, r1, r4
   d59bc:	f001 4100 	and.w	r1, r1, #2147483648	; 0x80000000
   d59c0:	fa21 f204 	lsr.w	r2, r1, r4
   d59c4:	ea20 0002 	bic.w	r0, r0, r2
   d59c8:	eb00 70d3 	add.w	r0, r0, r3, lsr #31
   d59cc:	ea5e 0e43 	orrs.w	lr, lr, r3, lsl #1
   d59d0:	bf08      	it	eq
   d59d2:	ea20 70d3 	biceq.w	r0, r0, r3, lsr #31
   d59d6:	bd70      	pop	{r4, r5, r6, pc}
   d59d8:	f094 0f00 	teq	r4, #0
   d59dc:	d10f      	bne.n	d59fe <__aeabi_dmul+0x1c2>
   d59de:	f001 4600 	and.w	r6, r1, #2147483648	; 0x80000000
   d59e2:	0040      	lsls	r0, r0, #1
   d59e4:	eb41 0101 	adc.w	r1, r1, r1
   d59e8:	f411 1f80 	tst.w	r1, #1048576	; 0x100000
   d59ec:	bf08      	it	eq
   d59ee:	3c01      	subeq	r4, #1
   d59f0:	d0f7      	beq.n	d59e2 <__aeabi_dmul+0x1a6>
   d59f2:	ea41 0106 	orr.w	r1, r1, r6
   d59f6:	f095 0f00 	teq	r5, #0
   d59fa:	bf18      	it	ne
   d59fc:	4770      	bxne	lr
   d59fe:	f003 4600 	and.w	r6, r3, #2147483648	; 0x80000000
   d5a02:	0052      	lsls	r2, r2, #1
   d5a04:	eb43 0303 	adc.w	r3, r3, r3
   d5a08:	f413 1f80 	tst.w	r3, #1048576	; 0x100000
   d5a0c:	bf08      	it	eq
   d5a0e:	3d01      	subeq	r5, #1
   d5a10:	d0f7      	beq.n	d5a02 <__aeabi_dmul+0x1c6>
   d5a12:	ea43 0306 	orr.w	r3, r3, r6
   d5a16:	4770      	bx	lr
   d5a18:	ea94 0f0c 	teq	r4, ip
   d5a1c:	ea0c 5513 	and.w	r5, ip, r3, lsr #20
   d5a20:	bf18      	it	ne
   d5a22:	ea95 0f0c 	teqne	r5, ip
   d5a26:	d00c      	beq.n	d5a42 <__aeabi_dmul+0x206>
   d5a28:	ea50 0641 	orrs.w	r6, r0, r1, lsl #1
   d5a2c:	bf18      	it	ne
   d5a2e:	ea52 0643 	orrsne.w	r6, r2, r3, lsl #1
   d5a32:	d1d1      	bne.n	d59d8 <__aeabi_dmul+0x19c>
   d5a34:	ea81 0103 	eor.w	r1, r1, r3
   d5a38:	f001 4100 	and.w	r1, r1, #2147483648	; 0x80000000
   d5a3c:	f04f 0000 	mov.w	r0, #0
   d5a40:	bd70      	pop	{r4, r5, r6, pc}
   d5a42:	ea50 0641 	orrs.w	r6, r0, r1, lsl #1
   d5a46:	bf06      	itte	eq
   d5a48:	4610      	moveq	r0, r2
   d5a4a:	4619      	moveq	r1, r3
   d5a4c:	ea52 0643 	orrsne.w	r6, r2, r3, lsl #1
   d5a50:	d019      	beq.n	d5a86 <__aeabi_dmul+0x24a>
   d5a52:	ea94 0f0c 	teq	r4, ip
   d5a56:	d102      	bne.n	d5a5e <__aeabi_dmul+0x222>
   d5a58:	ea50 3601 	orrs.w	r6, r0, r1, lsl #12
   d5a5c:	d113      	bne.n	d5a86 <__aeabi_dmul+0x24a>
   d5a5e:	ea95 0f0c 	teq	r5, ip
   d5a62:	d105      	bne.n	d5a70 <__aeabi_dmul+0x234>
   d5a64:	ea52 3603 	orrs.w	r6, r2, r3, lsl #12
   d5a68:	bf1c      	itt	ne
   d5a6a:	4610      	movne	r0, r2
   d5a6c:	4619      	movne	r1, r3
   d5a6e:	d10a      	bne.n	d5a86 <__aeabi_dmul+0x24a>
   d5a70:	ea81 0103 	eor.w	r1, r1, r3
   d5a74:	f001 4100 	and.w	r1, r1, #2147483648	; 0x80000000
   d5a78:	f041 41fe 	orr.w	r1, r1, #2130706432	; 0x7f000000
   d5a7c:	f441 0170 	orr.w	r1, r1, #15728640	; 0xf00000
   d5a80:	f04f 0000 	mov.w	r0, #0
   d5a84:	bd70      	pop	{r4, r5, r6, pc}
   d5a86:	f041 41fe 	orr.w	r1, r1, #2130706432	; 0x7f000000
   d5a8a:	f441 0178 	orr.w	r1, r1, #16252928	; 0xf80000
   d5a8e:	bd70      	pop	{r4, r5, r6, pc}

000d5a90 <__aeabi_ddiv>:
   d5a90:	b570      	push	{r4, r5, r6, lr}
   d5a92:	f04f 0cff 	mov.w	ip, #255	; 0xff
   d5a96:	f44c 6ce0 	orr.w	ip, ip, #1792	; 0x700
   d5a9a:	ea1c 5411 	ands.w	r4, ip, r1, lsr #20
   d5a9e:	bf1d      	ittte	ne
   d5aa0:	ea1c 5513 	andsne.w	r5, ip, r3, lsr #20
   d5aa4:	ea94 0f0c 	teqne	r4, ip
   d5aa8:	ea95 0f0c 	teqne	r5, ip
   d5aac:	f000 f8a7 	bleq	d5bfe <__aeabi_ddiv+0x16e>
   d5ab0:	eba4 0405 	sub.w	r4, r4, r5
   d5ab4:	ea81 0e03 	eor.w	lr, r1, r3
   d5ab8:	ea52 3503 	orrs.w	r5, r2, r3, lsl #12
   d5abc:	ea4f 3101 	mov.w	r1, r1, lsl #12
   d5ac0:	f000 8088 	beq.w	d5bd4 <__aeabi_ddiv+0x144>
   d5ac4:	ea4f 3303 	mov.w	r3, r3, lsl #12
   d5ac8:	f04f 5580 	mov.w	r5, #268435456	; 0x10000000
   d5acc:	ea45 1313 	orr.w	r3, r5, r3, lsr #4
   d5ad0:	ea43 6312 	orr.w	r3, r3, r2, lsr #24
   d5ad4:	ea4f 2202 	mov.w	r2, r2, lsl #8
   d5ad8:	ea45 1511 	orr.w	r5, r5, r1, lsr #4
   d5adc:	ea45 6510 	orr.w	r5, r5, r0, lsr #24
   d5ae0:	ea4f 2600 	mov.w	r6, r0, lsl #8
   d5ae4:	f00e 4100 	and.w	r1, lr, #2147483648	; 0x80000000
   d5ae8:	429d      	cmp	r5, r3
   d5aea:	bf08      	it	eq
   d5aec:	4296      	cmpeq	r6, r2
   d5aee:	f144 04fd 	adc.w	r4, r4, #253	; 0xfd
   d5af2:	f504 7440 	add.w	r4, r4, #768	; 0x300
   d5af6:	d202      	bcs.n	d5afe <__aeabi_ddiv+0x6e>
   d5af8:	085b      	lsrs	r3, r3, #1
   d5afa:	ea4f 0232 	mov.w	r2, r2, rrx
   d5afe:	1ab6      	subs	r6, r6, r2
   d5b00:	eb65 0503 	sbc.w	r5, r5, r3
   d5b04:	085b      	lsrs	r3, r3, #1
   d5b06:	ea4f 0232 	mov.w	r2, r2, rrx
   d5b0a:	f44f 1080 	mov.w	r0, #1048576	; 0x100000
   d5b0e:	f44f 2c00 	mov.w	ip, #524288	; 0x80000
   d5b12:	ebb6 0e02 	subs.w	lr, r6, r2
   d5b16:	eb75 0e03 	sbcs.w	lr, r5, r3
   d5b1a:	bf22      	ittt	cs
   d5b1c:	1ab6      	subcs	r6, r6, r2
   d5b1e:	4675      	movcs	r5, lr
   d5b20:	ea40 000c 	orrcs.w	r0, r0, ip
   d5b24:	085b      	lsrs	r3, r3, #1
   d5b26:	ea4f 0232 	mov.w	r2, r2, rrx
   d5b2a:	ebb6 0e02 	subs.w	lr, r6, r2
   d5b2e:	eb75 0e03 	sbcs.w	lr, r5, r3
   d5b32:	bf22      	ittt	cs
   d5b34:	1ab6      	subcs	r6, r6, r2
   d5b36:	4675      	movcs	r5, lr
   d5b38:	ea40 005c 	orrcs.w	r0, r0, ip, lsr #1
   d5b3c:	085b      	lsrs	r3, r3, #1
   d5b3e:	ea4f 0232 	mov.w	r2, r2, rrx
   d5b42:	ebb6 0e02 	subs.w	lr, r6, r2
   d5b46:	eb75 0e03 	sbcs.w	lr, r5, r3
   d5b4a:	bf22      	ittt	cs
   d5b4c:	1ab6      	subcs	r6, r6, r2
   d5b4e:	4675      	movcs	r5, lr
   d5b50:	ea40 009c 	orrcs.w	r0, r0, ip, lsr #2
   d5b54:	085b      	lsrs	r3, r3, #1
   d5b56:	ea4f 0232 	mov.w	r2, r2, rrx
   d5b5a:	ebb6 0e02 	subs.w	lr, r6, r2
   d5b5e:	eb75 0e03 	sbcs.w	lr, r5, r3
   d5b62:	bf22      	ittt	cs
   d5b64:	1ab6      	subcs	r6, r6, r2
   d5b66:	4675      	movcs	r5, lr
   d5b68:	ea40 00dc 	orrcs.w	r0, r0, ip, lsr #3
   d5b6c:	ea55 0e06 	orrs.w	lr, r5, r6
   d5b70:	d018      	beq.n	d5ba4 <__aeabi_ddiv+0x114>
   d5b72:	ea4f 1505 	mov.w	r5, r5, lsl #4
   d5b76:	ea45 7516 	orr.w	r5, r5, r6, lsr #28
   d5b7a:	ea4f 1606 	mov.w	r6, r6, lsl #4
   d5b7e:	ea4f 03c3 	mov.w	r3, r3, lsl #3
   d5b82:	ea43 7352 	orr.w	r3, r3, r2, lsr #29
   d5b86:	ea4f 02c2 	mov.w	r2, r2, lsl #3
   d5b8a:	ea5f 1c1c 	movs.w	ip, ip, lsr #4
   d5b8e:	d1c0      	bne.n	d5b12 <__aeabi_ddiv+0x82>
   d5b90:	f411 1f80 	tst.w	r1, #1048576	; 0x100000
   d5b94:	d10b      	bne.n	d5bae <__aeabi_ddiv+0x11e>
   d5b96:	ea41 0100 	orr.w	r1, r1, r0
   d5b9a:	f04f 0000 	mov.w	r0, #0
   d5b9e:	f04f 4c00 	mov.w	ip, #2147483648	; 0x80000000
   d5ba2:	e7b6      	b.n	d5b12 <__aeabi_ddiv+0x82>
   d5ba4:	f411 1f80 	tst.w	r1, #1048576	; 0x100000
   d5ba8:	bf04      	itt	eq
   d5baa:	4301      	orreq	r1, r0
   d5bac:	2000      	moveq	r0, #0
   d5bae:	f1b4 0cfd 	subs.w	ip, r4, #253	; 0xfd
   d5bb2:	bf88      	it	hi
   d5bb4:	f5bc 6fe0 	cmphi.w	ip, #1792	; 0x700
   d5bb8:	f63f aeaf 	bhi.w	d591a <__aeabi_dmul+0xde>
   d5bbc:	ebb5 0c03 	subs.w	ip, r5, r3
   d5bc0:	bf04      	itt	eq
   d5bc2:	ebb6 0c02 	subseq.w	ip, r6, r2
   d5bc6:	ea5f 0c50 	movseq.w	ip, r0, lsr #1
   d5bca:	f150 0000 	adcs.w	r0, r0, #0
   d5bce:	eb41 5104 	adc.w	r1, r1, r4, lsl #20
   d5bd2:	bd70      	pop	{r4, r5, r6, pc}
   d5bd4:	f00e 4e00 	and.w	lr, lr, #2147483648	; 0x80000000
   d5bd8:	ea4e 3111 	orr.w	r1, lr, r1, lsr #12
   d5bdc:	eb14 045c 	adds.w	r4, r4, ip, lsr #1
   d5be0:	bfc2      	ittt	gt
   d5be2:	ebd4 050c 	rsbsgt	r5, r4, ip
   d5be6:	ea41 5104 	orrgt.w	r1, r1, r4, lsl #20
   d5bea:	bd70      	popgt	{r4, r5, r6, pc}
   d5bec:	f441 1180 	orr.w	r1, r1, #1048576	; 0x100000
   d5bf0:	f04f 0e00 	mov.w	lr, #0
   d5bf4:	3c01      	subs	r4, #1
   d5bf6:	e690      	b.n	d591a <__aeabi_dmul+0xde>
   d5bf8:	ea45 0e06 	orr.w	lr, r5, r6
   d5bfc:	e68d      	b.n	d591a <__aeabi_dmul+0xde>
   d5bfe:	ea0c 5513 	and.w	r5, ip, r3, lsr #20
   d5c02:	ea94 0f0c 	teq	r4, ip
   d5c06:	bf08      	it	eq
   d5c08:	ea95 0f0c 	teqeq	r5, ip
   d5c0c:	f43f af3b 	beq.w	d5a86 <__aeabi_dmul+0x24a>
   d5c10:	ea94 0f0c 	teq	r4, ip
   d5c14:	d10a      	bne.n	d5c2c <__aeabi_ddiv+0x19c>
   d5c16:	ea50 3401 	orrs.w	r4, r0, r1, lsl #12
   d5c1a:	f47f af34 	bne.w	d5a86 <__aeabi_dmul+0x24a>
   d5c1e:	ea95 0f0c 	teq	r5, ip
   d5c22:	f47f af25 	bne.w	d5a70 <__aeabi_dmul+0x234>
   d5c26:	4610      	mov	r0, r2
   d5c28:	4619      	mov	r1, r3
   d5c2a:	e72c      	b.n	d5a86 <__aeabi_dmul+0x24a>
   d5c2c:	ea95 0f0c 	teq	r5, ip
   d5c30:	d106      	bne.n	d5c40 <__aeabi_ddiv+0x1b0>
   d5c32:	ea52 3503 	orrs.w	r5, r2, r3, lsl #12
   d5c36:	f43f aefd 	beq.w	d5a34 <__aeabi_dmul+0x1f8>
   d5c3a:	4610      	mov	r0, r2
   d5c3c:	4619      	mov	r1, r3
   d5c3e:	e722      	b.n	d5a86 <__aeabi_dmul+0x24a>
   d5c40:	ea50 0641 	orrs.w	r6, r0, r1, lsl #1
   d5c44:	bf18      	it	ne
   d5c46:	ea52 0643 	orrsne.w	r6, r2, r3, lsl #1
   d5c4a:	f47f aec5 	bne.w	d59d8 <__aeabi_dmul+0x19c>
   d5c4e:	ea50 0441 	orrs.w	r4, r0, r1, lsl #1
   d5c52:	f47f af0d 	bne.w	d5a70 <__aeabi_dmul+0x234>
   d5c56:	ea52 0543 	orrs.w	r5, r2, r3, lsl #1
   d5c5a:	f47f aeeb 	bne.w	d5a34 <__aeabi_dmul+0x1f8>
   d5c5e:	e712      	b.n	d5a86 <__aeabi_dmul+0x24a>

000d5c60 <__gedf2>:
   d5c60:	f04f 3cff 	mov.w	ip, #4294967295
   d5c64:	e006      	b.n	d5c74 <__cmpdf2+0x4>
   d5c66:	bf00      	nop

000d5c68 <__ledf2>:
   d5c68:	f04f 0c01 	mov.w	ip, #1
   d5c6c:	e002      	b.n	d5c74 <__cmpdf2+0x4>
   d5c6e:	bf00      	nop

000d5c70 <__cmpdf2>:
   d5c70:	f04f 0c01 	mov.w	ip, #1
   d5c74:	f84d cd04 	str.w	ip, [sp, #-4]!
   d5c78:	ea4f 0c41 	mov.w	ip, r1, lsl #1
   d5c7c:	ea7f 5c6c 	mvns.w	ip, ip, asr #21
   d5c80:	ea4f 0c43 	mov.w	ip, r3, lsl #1
   d5c84:	bf18      	it	ne
   d5c86:	ea7f 5c6c 	mvnsne.w	ip, ip, asr #21
   d5c8a:	d01b      	beq.n	d5cc4 <__cmpdf2+0x54>
   d5c8c:	b001      	add	sp, #4
   d5c8e:	ea50 0c41 	orrs.w	ip, r0, r1, lsl #1
   d5c92:	bf0c      	ite	eq
   d5c94:	ea52 0c43 	orrseq.w	ip, r2, r3, lsl #1
   d5c98:	ea91 0f03 	teqne	r1, r3
   d5c9c:	bf02      	ittt	eq
   d5c9e:	ea90 0f02 	teqeq	r0, r2
   d5ca2:	2000      	moveq	r0, #0
   d5ca4:	4770      	bxeq	lr
   d5ca6:	f110 0f00 	cmn.w	r0, #0
   d5caa:	ea91 0f03 	teq	r1, r3
   d5cae:	bf58      	it	pl
   d5cb0:	4299      	cmppl	r1, r3
   d5cb2:	bf08      	it	eq
   d5cb4:	4290      	cmpeq	r0, r2
   d5cb6:	bf2c      	ite	cs
   d5cb8:	17d8      	asrcs	r0, r3, #31
   d5cba:	ea6f 70e3 	mvncc.w	r0, r3, asr #31
   d5cbe:	f040 0001 	orr.w	r0, r0, #1
   d5cc2:	4770      	bx	lr
   d5cc4:	ea4f 0c41 	mov.w	ip, r1, lsl #1
   d5cc8:	ea7f 5c6c 	mvns.w	ip, ip, asr #21
   d5ccc:	d102      	bne.n	d5cd4 <__cmpdf2+0x64>
   d5cce:	ea50 3c01 	orrs.w	ip, r0, r1, lsl #12
   d5cd2:	d107      	bne.n	d5ce4 <__cmpdf2+0x74>
   d5cd4:	ea4f 0c43 	mov.w	ip, r3, lsl #1
   d5cd8:	ea7f 5c6c 	mvns.w	ip, ip, asr #21
   d5cdc:	d1d6      	bne.n	d5c8c <__cmpdf2+0x1c>
   d5cde:	ea52 3c03 	orrs.w	ip, r2, r3, lsl #12
   d5ce2:	d0d3      	beq.n	d5c8c <__cmpdf2+0x1c>
   d5ce4:	f85d 0b04 	ldr.w	r0, [sp], #4
   d5ce8:	4770      	bx	lr
   d5cea:	bf00      	nop

000d5cec <__aeabi_cdrcmple>:
   d5cec:	4684      	mov	ip, r0
   d5cee:	4610      	mov	r0, r2
   d5cf0:	4662      	mov	r2, ip
   d5cf2:	468c      	mov	ip, r1
   d5cf4:	4619      	mov	r1, r3
   d5cf6:	4663      	mov	r3, ip
   d5cf8:	e000      	b.n	d5cfc <__aeabi_cdcmpeq>
   d5cfa:	bf00      	nop

000d5cfc <__aeabi_cdcmpeq>:
   d5cfc:	b501      	push	{r0, lr}
   d5cfe:	f7ff ffb7 	bl	d5c70 <__cmpdf2>
   d5d02:	2800      	cmp	r0, #0
   d5d04:	bf48      	it	mi
   d5d06:	f110 0f00 	cmnmi.w	r0, #0
   d5d0a:	bd01      	pop	{r0, pc}

000d5d0c <__aeabi_dcmpeq>:
   d5d0c:	f84d ed08 	str.w	lr, [sp, #-8]!
   d5d10:	f7ff fff4 	bl	d5cfc <__aeabi_cdcmpeq>
   d5d14:	bf0c      	ite	eq
   d5d16:	2001      	moveq	r0, #1
   d5d18:	2000      	movne	r0, #0
   d5d1a:	f85d fb08 	ldr.w	pc, [sp], #8
   d5d1e:	bf00      	nop

000d5d20 <__aeabi_dcmplt>:
   d5d20:	f84d ed08 	str.w	lr, [sp, #-8]!
   d5d24:	f7ff ffea 	bl	d5cfc <__aeabi_cdcmpeq>
   d5d28:	bf34      	ite	cc
   d5d2a:	2001      	movcc	r0, #1
   d5d2c:	2000      	movcs	r0, #0
   d5d2e:	f85d fb08 	ldr.w	pc, [sp], #8
   d5d32:	bf00      	nop

000d5d34 <__aeabi_dcmple>:
   d5d34:	f84d ed08 	str.w	lr, [sp, #-8]!
   d5d38:	f7ff ffe0 	bl	d5cfc <__aeabi_cdcmpeq>
   d5d3c:	bf94      	ite	ls
   d5d3e:	2001      	movls	r0, #1
   d5d40:	2000      	movhi	r0, #0
   d5d42:	f85d fb08 	ldr.w	pc, [sp], #8
   d5d46:	bf00      	nop

000d5d48 <__aeabi_dcmpge>:
   d5d48:	f84d ed08 	str.w	lr, [sp, #-8]!
   d5d4c:	f7ff ffce 	bl	d5cec <__aeabi_cdrcmple>
   d5d50:	bf94      	ite	ls
   d5d52:	2001      	movls	r0, #1
   d5d54:	2000      	movhi	r0, #0
   d5d56:	f85d fb08 	ldr.w	pc, [sp], #8
   d5d5a:	bf00      	nop

000d5d5c <__aeabi_dcmpgt>:
   d5d5c:	f84d ed08 	str.w	lr, [sp, #-8]!
   d5d60:	f7ff ffc4 	bl	d5cec <__aeabi_cdrcmple>
   d5d64:	bf34      	ite	cc
   d5d66:	2001      	movcc	r0, #1
   d5d68:	2000      	movcs	r0, #0
   d5d6a:	f85d fb08 	ldr.w	pc, [sp], #8
   d5d6e:	bf00      	nop

000d5d70 <__aeabi_dcmpun>:
   d5d70:	ea4f 0c41 	mov.w	ip, r1, lsl #1
   d5d74:	ea7f 5c6c 	mvns.w	ip, ip, asr #21
   d5d78:	d102      	bne.n	d5d80 <__aeabi_dcmpun+0x10>
   d5d7a:	ea50 3c01 	orrs.w	ip, r0, r1, lsl #12
   d5d7e:	d10a      	bne.n	d5d96 <__aeabi_dcmpun+0x26>
   d5d80:	ea4f 0c43 	mov.w	ip, r3, lsl #1
   d5d84:	ea7f 5c6c 	mvns.w	ip, ip, asr #21
   d5d88:	d102      	bne.n	d5d90 <__aeabi_dcmpun+0x20>
   d5d8a:	ea52 3c03 	orrs.w	ip, r2, r3, lsl #12
   d5d8e:	d102      	bne.n	d5d96 <__aeabi_dcmpun+0x26>
   d5d90:	f04f 0000 	mov.w	r0, #0
   d5d94:	4770      	bx	lr
   d5d96:	f04f 0001 	mov.w	r0, #1
   d5d9a:	4770      	bx	lr

000d5d9c <__aeabi_d2iz>:
   d5d9c:	ea4f 0241 	mov.w	r2, r1, lsl #1
   d5da0:	f512 1200 	adds.w	r2, r2, #2097152	; 0x200000
   d5da4:	d215      	bcs.n	d5dd2 <__aeabi_d2iz+0x36>
   d5da6:	d511      	bpl.n	d5dcc <__aeabi_d2iz+0x30>
   d5da8:	f46f 7378 	mvn.w	r3, #992	; 0x3e0
   d5dac:	ebb3 5262 	subs.w	r2, r3, r2, asr #21
   d5db0:	d912      	bls.n	d5dd8 <__aeabi_d2iz+0x3c>
   d5db2:	ea4f 23c1 	mov.w	r3, r1, lsl #11
   d5db6:	f043 4300 	orr.w	r3, r3, #2147483648	; 0x80000000
   d5dba:	ea43 5350 	orr.w	r3, r3, r0, lsr #21
   d5dbe:	f011 4f00 	tst.w	r1, #2147483648	; 0x80000000
   d5dc2:	fa23 f002 	lsr.w	r0, r3, r2
   d5dc6:	bf18      	it	ne
   d5dc8:	4240      	negne	r0, r0
   d5dca:	4770      	bx	lr
   d5dcc:	f04f 0000 	mov.w	r0, #0
   d5dd0:	4770      	bx	lr
   d5dd2:	ea50 3001 	orrs.w	r0, r0, r1, lsl #12
   d5dd6:	d105      	bne.n	d5de4 <__aeabi_d2iz+0x48>
   d5dd8:	f011 4000 	ands.w	r0, r1, #2147483648	; 0x80000000
   d5ddc:	bf08      	it	eq
   d5dde:	f06f 4000 	mvneq.w	r0, #2147483648	; 0x80000000
   d5de2:	4770      	bx	lr
   d5de4:	f04f 0000 	mov.w	r0, #0
   d5de8:	4770      	bx	lr
   d5dea:	bf00      	nop

000d5dec <__aeabi_d2uiz>:
   d5dec:	004a      	lsls	r2, r1, #1
   d5dee:	d211      	bcs.n	d5e14 <__aeabi_d2uiz+0x28>
   d5df0:	f512 1200 	adds.w	r2, r2, #2097152	; 0x200000
   d5df4:	d211      	bcs.n	d5e1a <__aeabi_d2uiz+0x2e>
   d5df6:	d50d      	bpl.n	d5e14 <__aeabi_d2uiz+0x28>
   d5df8:	f46f 7378 	mvn.w	r3, #992	; 0x3e0
   d5dfc:	ebb3 5262 	subs.w	r2, r3, r2, asr #21
   d5e00:	d40e      	bmi.n	d5e20 <__aeabi_d2uiz+0x34>
   d5e02:	ea4f 23c1 	mov.w	r3, r1, lsl #11
   d5e06:	f043 4300 	orr.w	r3, r3, #2147483648	; 0x80000000
   d5e0a:	ea43 5350 	orr.w	r3, r3, r0, lsr #21
   d5e0e:	fa23 f002 	lsr.w	r0, r3, r2
   d5e12:	4770      	bx	lr
   d5e14:	f04f 0000 	mov.w	r0, #0
   d5e18:	4770      	bx	lr
   d5e1a:	ea50 3001 	orrs.w	r0, r0, r1, lsl #12
   d5e1e:	d102      	bne.n	d5e26 <__aeabi_d2uiz+0x3a>
   d5e20:	f04f 30ff 	mov.w	r0, #4294967295
   d5e24:	4770      	bx	lr
   d5e26:	f04f 0000 	mov.w	r0, #0
   d5e2a:	4770      	bx	lr

000d5e2c <__cxa_atexit>:
   d5e2c:	b510      	push	{r4, lr}
   d5e2e:	4c05      	ldr	r4, [pc, #20]	; (d5e44 <__cxa_atexit+0x18>)
   d5e30:	4613      	mov	r3, r2
   d5e32:	b12c      	cbz	r4, d5e40 <__cxa_atexit+0x14>
   d5e34:	460a      	mov	r2, r1
   d5e36:	4601      	mov	r1, r0
   d5e38:	2002      	movs	r0, #2
   d5e3a:	f3af 8000 	nop.w
   d5e3e:	bd10      	pop	{r4, pc}
   d5e40:	4620      	mov	r0, r4
   d5e42:	bd10      	pop	{r4, pc}
   d5e44:	00000000 	.word	0x00000000

000d5e48 <memcpy>:
   d5e48:	b510      	push	{r4, lr}
   d5e4a:	1e43      	subs	r3, r0, #1
   d5e4c:	440a      	add	r2, r1
   d5e4e:	4291      	cmp	r1, r2
   d5e50:	d004      	beq.n	d5e5c <memcpy+0x14>
   d5e52:	f811 4b01 	ldrb.w	r4, [r1], #1
   d5e56:	f803 4f01 	strb.w	r4, [r3, #1]!
   d5e5a:	e7f8      	b.n	d5e4e <memcpy+0x6>
   d5e5c:	bd10      	pop	{r4, pc}

000d5e5e <memset>:
   d5e5e:	4402      	add	r2, r0
   d5e60:	4603      	mov	r3, r0
   d5e62:	4293      	cmp	r3, r2
   d5e64:	d002      	beq.n	d5e6c <memset+0xe>
   d5e66:	f803 1b01 	strb.w	r1, [r3], #1
   d5e6a:	e7fa      	b.n	d5e62 <memset+0x4>
   d5e6c:	4770      	bx	lr
	...

000d5e70 <srand>:
   d5e70:	b538      	push	{r3, r4, r5, lr}
   d5e72:	4b12      	ldr	r3, [pc, #72]	; (d5ebc <srand+0x4c>)
   d5e74:	681c      	ldr	r4, [r3, #0]
   d5e76:	6ba3      	ldr	r3, [r4, #56]	; 0x38
   d5e78:	4605      	mov	r5, r0
   d5e7a:	b9d3      	cbnz	r3, d5eb2 <srand+0x42>
   d5e7c:	2018      	movs	r0, #24
   d5e7e:	f7fe fb39 	bl	d44f4 <malloc>
   d5e82:	f243 330e 	movw	r3, #13070	; 0x330e
   d5e86:	63a0      	str	r0, [r4, #56]	; 0x38
   d5e88:	8003      	strh	r3, [r0, #0]
   d5e8a:	f64a 33cd 	movw	r3, #43981	; 0xabcd
   d5e8e:	8043      	strh	r3, [r0, #2]
   d5e90:	f241 2334 	movw	r3, #4660	; 0x1234
   d5e94:	8083      	strh	r3, [r0, #4]
   d5e96:	f24e 636d 	movw	r3, #58989	; 0xe66d
   d5e9a:	80c3      	strh	r3, [r0, #6]
   d5e9c:	f64d 63ec 	movw	r3, #57068	; 0xdeec
   d5ea0:	8103      	strh	r3, [r0, #8]
   d5ea2:	2305      	movs	r3, #5
   d5ea4:	8143      	strh	r3, [r0, #10]
   d5ea6:	230b      	movs	r3, #11
   d5ea8:	8183      	strh	r3, [r0, #12]
   d5eaa:	2201      	movs	r2, #1
   d5eac:	2300      	movs	r3, #0
   d5eae:	e9c0 2304 	strd	r2, r3, [r0, #16]
   d5eb2:	6ba3      	ldr	r3, [r4, #56]	; 0x38
   d5eb4:	2200      	movs	r2, #0
   d5eb6:	611d      	str	r5, [r3, #16]
   d5eb8:	615a      	str	r2, [r3, #20]
   d5eba:	bd38      	pop	{r3, r4, r5, pc}
   d5ebc:	2003e3c8 	.word	0x2003e3c8

000d5ec0 <strlen>:
   d5ec0:	4603      	mov	r3, r0
   d5ec2:	f813 2b01 	ldrb.w	r2, [r3], #1
   d5ec6:	2a00      	cmp	r2, #0
   d5ec8:	d1fb      	bne.n	d5ec2 <strlen+0x2>
   d5eca:	1a18      	subs	r0, r3, r0
   d5ecc:	3801      	subs	r0, #1
   d5ece:	4770      	bx	lr

000d5ed0 <dynalib_user>:
   d5ed0:	401d 000d 4059 000d 4085 000d 4089 000d     .@..Y@...@...@..
   d5ee0:	0000 0000 6568 6c6c 006f 6954 656d 5020     ....hello.Time P
   d5ef0:	7361 6573 3a64 0020 5220 4d50 0000 0000     assed: . RPM....

000d5f00 <_ZTVN5spark13EthernetClassE>:
	...
   d5f08:	4573 000d 4569 000d 455f 000d 4555 000d     sE..iE.._E..UE..
   d5f18:	4549 000d 453d 000d 4531 000d 4529 000d     IE..=E..1E..)E..
   d5f28:	451f 000d 4515 000d 4fe5 000d 616e 006e     .E...E...O..nan.
   d5f38:	766f 0066 002e 6e69 0066 6162 6475 5300     ovf...inf.baud.S
   d5f48:	7265 6169 006c 6553 6972 6c61 0031 7974     erial.Serial1.ty
   d5f58:	6570 7000 7261 6d61 6300 646d 6900 0064     pe.param.cmd.id.
   d5f68:	6e68 0064 7473 6d72 6600 6c69 0074 766c     hnd.strm.filt.lv
   d5f78:	006c 6461 4864 6e61 6c64 7265 7200 6d65     l.addHandler.rem
   d5f88:	766f 4865 6e61 6c64 7265 6500 756e 486d     oveHandler.enumH
   d5f98:	6e61 6c64 7265 0073 534a 4e4f 7453 6572     andlers.JSONStre
   d5fa8:	6d61 6f4c 4867 6e61 6c64 7265 6100 7070     amLogHandler.app
   d5fb8:	2500 3130 7530 0020 205d 2500 0064 202c     .%010u .] .%d., 
   d5fc8:	2800 3a29 0020 5b20 6300 646f 2065 203d     .(): . [.code = 
   d5fd8:	2500 0069 6564 6174 6c69 2073 203d 0d00     .%i.details = ..
   d5fe8:	000a 6e6c 6600 006e 6f63 6564 6400 7465     ..ln.fn.code.det
   d5ff8:	6961 006c 6f6e 656e 7400 6172 6563 6900     ail.none.trace.i
   d6008:	666e 006f 6177 6e72 6500 7272 726f 7000     nfo.warn.error.p
   d6018:	6e61 6369 6100 6c6c 5a00 2500 302b 6433     anic.all.Z.%+03d
   d6028:	253a 3230 0075 5925 252d 2d6d 6425 2554     :%02u.%Y-%m-%dT%
   d6038:	3a48 4d25 253a 2553 007a 7361 7463 6d69     H:%M:%S%z.asctim
   d6048:	0065 0000                                   e...

000d604c <_ZTV9IPAddress>:
	...
   d6054:	4a19 000d 4a09 000d 4a0b 000d               .J...J...J..

000d6060 <_ZTV9USBSerial>:
	...
   d6068:	4af1 000d 4b41 000d 4b4f 000d 4635 000d     .J..AK..OK..5F..
   d6078:	4b2d 000d 4af3 000d 4b09 000d 4b3b 000d     -K...J...K..;K..
   d6088:	4b1f 000d 4aed 000d                         .K...J..

000d6090 <_ZTV11USARTSerial>:
	...
   d6098:	4bfd 000d 4c4d 000d 4c5b 000d 4635 000d     .K..ML..[L..5F..
   d60a8:	4c11 000d 4c33 000d 4c1f 000d 4c47 000d     .L..3L...L..GL..
   d60b8:	4bff 000d 4c03 000d                         .K...L..

000d60c0 <_ZTV7TwoWire>:
	...
   d60c8:	4d01 000d 4d4b 000d 4d23 000d 4d03 000d     .M..KM..#M...M..
   d60d8:	4d2b 000d 4d33 000d 4d3b 000d 4d43 000d     +M..3M..;M..CM..

000d60e8 <_ZTVN5spark9MeshClassE>:
	...
   d60f0:	4de3 000d 4dd9 000d 4dcf 000d 4dc5 000d     .M...M...M...M..
   d6100:	4db9 000d 4dad 000d 4da1 000d 4d99 000d     .M...M...M...M..
   d6110:	4d8f 000d 4d85 000d 4fe5 000d               .M...M...O..

000d611c <_ZTVN5spark9WiFiClassE>:
	...
   d6124:	4f5f 000d 4f55 000d 4f4b 000d 4f01 000d     _O..UO..KO...O..
   d6134:	4f3f 000d 4f33 000d 4f27 000d 4f1f 000d     ?O..3O..'O...O..
   d6144:	4f15 000d 4f0b 000d 4fe5 000d               .O...O...O..

000d6150 <_ZTVN5spark12NetworkClassE>:
	...
   d6158:	4f7d 000d 4f87 000d 4f91 000d 4f9b 000d     }O...O...O...O..
   d6168:	4fa5 000d 4fb1 000d 4fbd 000d 4fc9 000d     .O...O...O...O..
   d6178:	4fd1 000d 4fdb 000d 4fe5 000d               .O...O...O..

000d6184 <_ZSt7nothrow>:
   d6184:	0000 0000                                   ....

000d6188 <__sf_fake_stdin>:
	...

000d61a8 <__sf_fake_stdout>:
	...

000d61c8 <__sf_fake_stderr>:
	...
   d61e8:	0043                                        C.

000d61ea <link_const_variable_data_end>:
	...

000d61ec <link_constructors_location>:
   d61ec:	000d41a5 	.word	0x000d41a5
   d61f0:	000d41a9 	.word	0x000d41a9
   d61f4:	000d457d 	.word	0x000d457d
   d61f8:	000d45c9 	.word	0x000d45c9
   d61fc:	000d460d 	.word	0x000d460d
   d6200:	000d4899 	.word	0x000d4899
   d6204:	000d48a9 	.word	0x000d48a9
   d6208:	000d48dd 	.word	0x000d48dd
   d620c:	000d4eb1 	.word	0x000d4eb1
   d6210:	000d4f69 	.word	0x000d4f69
   d6214:	000d50b1 	.word	0x000d50b1
   d6218:	000d523d 	.word	0x000d523d
   d621c:	000d52c1 	.word	0x000d52c1
   d6220:	000d5385 	.word	0x000d5385
   d6224:	000d5449 	.word	0x000d5449

000d6228 <link_constructors_end>:
	...
